(lp0
(lp1
(I1
F70.0
tp2
a(I5
F70.0
tp3
a(I6
F70.0
tp4
a(I10
F70.0
tp5
a(I12
F70.0
tp6
a(I14
F70.0
tp7
a(I17
F70.0
tp8
a(I0
F65.0
tp9
a(I2
F65.0
tp10
a(I20
F65.0
tp11
a(I3
F62.0
tp12
a(I30
F62.0
tp13
a(I4
F60.0
tp14
a(I7
F60.0
tp15
a(I13
F60.0
tp16
a(I18
F60.0
tp17
a(I22
F60.0
tp18
a(I29
F60.0
tp19
a(I31
F60.0
tp20
a(I40
F60.0
tp21
a(I59
F60.0
tp22
a(I68
F60.0
tp23
a(I77
F60.0
tp24
a(I80
F60.0
tp25
a(I86
F60.0
tp26
a(I91
F60.0
tp27
a(I95
F60.0
tp28
a(I8
F50.0
tp29
a(I19
F50.0
tp30
a(I69
F50.0
tp31
a(I78
F50.0
tp32
a(I87
F50.0
tp33
a(I90
F50.0
tp34
a(I96
F50.0
tp35
a(I9
F40.0
tp36
a(I79
F40.0
tp37
a(I88
F40.0
tp38
a(I97
F40.0
tp39
a(I89
F30.0
tp40
a(I98
F30.0
tp41
aa(lp42
a(lp43
(I43
F80.0
tp44
a(I52
F80.0
tp45
a(I54
F80.0
tp46
a(I61
F80.0
tp47
a(I15
F75.0
tp48
a(I16
F75.0
tp49
a(I24
F75.0
tp50
a(I27
F75.0
tp51
a(I33
F75.0
tp52
a(I38
F75.0
tp53
a(I42
F75.0
tp54
a(I48
F75.0
tp55
a(I51
F75.0
tp56
a(I57
F75.0
tp57
a(I60
F75.0
tp58
a(I66
F75.0
tp59
a(I71
F75.0
tp60
a(I75
F75.0
tp61
a(I82
F75.0
tp62
a(I84
F75.0
tp63
a(I93
F75.0
tp64
a(I23
F70.0
tp65
a(I28
F70.0
tp66
a(I32
F70.0
tp67
a(I39
F70.0
tp68
a(I41
F70.0
tp69
a(I49
F70.0
tp70
a(I50
F70.0
tp71
a(I58
F70.0
tp72
a(I67
F70.0
tp73
a(I70
F70.0
tp74
a(I76
F70.0
tp75
a(I81
F70.0
tp76
a(I85
F70.0
tp77
a(I92
F70.0
tp78
a(I94
F70.0
tp79
aa(lp80
(I35
F90.0
tp81
a(I36
F90.0
tp82
a(I45
F90.0
tp83
a(I25
F85.0
tp84
a(I26
F85.0
tp85
a(I34
F85.0
tp86
a(I37
F85.0
tp87
a(I44
F85.0
tp88
a(I47
F85.0
tp89
a(I55
F85.0
tp90
a(I56
F85.0
tp91
aa(lp92
(I53
F90.0
tp93
a(I62
F90.0
tp94
a(I64
F90.0
tp95
a(I73
F90.0
tp96
a(I72
F80.0
tp97
a(I74
F80.0
tp98
a(I83
F80.0
tp99
aa.