(lp0
(I0
I1
tp1
a(I1
I2
tp2
a(I1
I3
tp3
a(I3
I4
tp4
a(I4
I5
tp5
a(I4
I6
tp6
a(I6
I7
tp7
a(I6
I8
tp8
a(I8
I9
tp9
a(I9
I10
tp10
a(I9
I11
tp11
a(I11
I12
tp12
a(I12
I13
tp13
a(I13
I14
tp14
a(I14
I15
tp15
a(I15
I16
tp16
a(I15
I17
tp17
a(I14
I18
tp18
a(I18
I19
tp19
a(I18
I20
tp20
a(I20
I21
tp21
a(I20
I22
tp22
a(I22
I23
tp23
a(I22
I24
tp24
a(I24
I25
tp25
a(I24
I26
tp26
a(I26
I27
tp27
a(I26
I28
tp28
a(I28
I29
tp29
a(I28
I30
tp30
a(I13
I31
tp31
a(I12
I32
tp32
a(I11
I33
tp33
a(I33
I34
tp34
a(I34
I35
tp35
a(I35
I36
tp36
a(I36
I37
tp37
a(I36
I38
tp38
a(I35
I39
tp39
a(I39
I40
tp40
a(I39
I41
tp41
a(I34
I42
tp42
a(I42
I43
tp43
a(I42
I44
tp44
a(I44
I45
tp45
a(I45
I46
tp46
a(I46
I47
tp47
a(I46
I48
tp48
a(I48
I49
tp49
a(I49
I50
tp50
a(I49
I51
tp51
a(I48
I52
tp52
a(I52
I53
tp53
a(I53
I54
tp54
a(I54
I55
tp55
a(I54
I56
tp56
a(I56
I57
tp57
a(I57
I58
tp58
a(I58
I59
tp59
a(I58
I60
tp60
a(I60
I61
tp61
a(I61
I62
tp62
a(I62
I63
tp63
a(I63
I64
tp64
a(I63
I65
tp65
a(I65
I66
tp66
a(I66
I67
tp67
a(I66
I68
tp68
a(I65
I69
tp69
a(I62
I70
tp70
a(I61
I71
tp71
a(I60
I72
tp72
a(I57
I73
tp73
a(I56
I74
tp74
a(I74
I75
tp75
a(I75
I76
tp76
a(I75
I77
tp77
a(I77
I78
tp78
a(I78
I79
tp79
a(I78
I80
tp80
a(I77
I81
tp81
a(I74
I82
tp82
a(I53
I83
tp83
a(I83
I84
tp84
a(I83
I85
tp85
a(I52
I86
tp86
a(I86
I87
tp87
a(I87
I88
tp88
a(I88
I89
tp89
a(I88
I90
tp90
a(I87
I91
tp91
a(I86
I92
tp92
a(I45
I93
tp93
a(I44
I94
tp94
a(I33
I95
tp95
a(I8
I96
tp96
a(I3
I97
tp97
a.