(lp0
(lp1
(I2512
F0.017362
tp2
a(I953
F0.017301
tp3
a(I849
F0.017272
tp4
a(I600
F0.017032
tp5
a(I1524
F0.017008
tp6
a(I1943
F0.01699
tp7
a(I1869
F0.016979
tp8
a(I1180
F0.016948
tp9
a(I1052
F0.016925
tp10
a(I514
F0.016863
tp11
a(I798
F0.016826
tp12
a(I801
F0.016663
tp13
a(I951
F0.016659
tp14
a(I594
F0.016654
tp15
a(I2375
F0.016625
tp16
a(I2608
F0.016599
tp17
a(I1838
F0.016561
tp18
a(I1642
F0.016556
tp19
a(I1236
F0.016499
tp20
a(I1539
F0.016394
tp21
a(I1730
F0.016381
tp22
a(I1573
F0.016333
tp23
a(I1395
F0.016323
tp24
a(I1595
F0.016165
tp25
a(I1511
F0.016152
tp26
a(I672
F0.016062
tp27
a(I885
F0.016043
tp28
a(I1301
F0.015935
tp29
a(I1423
F0.015747
tp30
a(I779
F0.015737
tp31
a(I1274
F0.015671
tp32
a(I2085
F0.015489
tp33
a(I1319
F0.015265
tp34
a(I976
F0.015162
tp35
a(I1279
F0.014943
tp36
a(I887
F0.01492
tp37
a(I1104
F0.014893
tp38
a(I535
F0.014809
tp39
a(I1769
F0.014809
tp40
a(I373
F0.014752
tp41
a(I1514
F0.01474
tp42
a(I2137
F0.014683
tp43
a(I1093
F0.014571
tp44
a(I1689
F0.014524
tp45
a(I1551
F0.014503
tp46
a(I936
F0.014495
tp47
a(I1712
F0.014388
tp48
a(I996
F0.014303
tp49
a(I857
F0.014301
tp50
a(I790
F0.014086
tp51
a(I1844
F0.014012
tp52
a(I1887
F0.014009
tp53
a(I904
F0.014003
tp54
a(I507
F0.01367
tp55
a(I768
F0.013605
tp56
a(I1331
F0.013564
tp57
a(I1597
F0.013516
tp58
a(I482
F0.013473
tp59
a(I1365
F0.01346
tp60
a(I1753
F0.013302
tp61
a(I589
F0.013286
tp62
a(I946
F0.013204
tp63
a(I931
F0.013192
tp64
a(I1313
F0.01318
tp65
a(I577
F0.013146
tp66
a(I713
F0.013047
tp67
a(I907
F0.012863
tp68
a(I1083
F0.012826
tp69
a(I858
F0.012808
tp70
a(I1960
F0.012667
tp71
a(I1415
F0.012617
tp72
a(I1327
F0.012614
tp73
a(I1907
F0.012415
tp74
a(I1916
F0.012378
tp75
a(I555
F0.012262
tp76
a(I1201
F0.011895
tp77
a(I1214
F0.011883
tp78
a(I916
F0.011808
tp79
a(I664
F0.011742
tp80
a(I731
F0.011646
tp81
a(I789
F0.011633
tp82
a(I906
F0.01161
tp83
a(I1741
F0.011434
tp84
a(I1684
F0.01143
tp85
a(I1058
F0.011399
tp86
a(I1507
F0.011152
tp87
a(I1178
F0.010965
tp88
a(I958
F0.010925
tp89
a(I1362
F0.010606
tp90
a(I1875
F0.010582
tp91
a(I1608
F0.010566
tp92
a(I1548
F0.010531
tp93
a(I1780
F0.01023
tp94
a(I1106
F0.009862
tp95
a(I650
F0.009826
tp96
a(I1124
F0.009589
tp97
a(I877
F0.009444
tp98
a(I1585
F0.009363
tp99
a(I766
F0.009162
tp100
a(I655
F0.00905
tp101
a(I1012
F0.009038
tp102
a(I1269
F0.009019
tp103
a(I1048
F0.008952
tp104
a(I980
F0.008846
tp105
a(I918
F0.008802
tp106
a(I831
F0.008796
tp107
a(I827
F0.008706
tp108
a(I1316
F0.008604
tp109
a(I1758
F0.00844
tp110
a(I837
F0.008355
tp111
a(I935
F0.00829
tp112
a(I1348
F0.007908
tp113
a(I811
F0.007903
tp114
a(I1739
F0.007829
tp115
a(I1632
F0.007737
tp116
a(I1505
F0.007724
tp117
a(I966
F0.00732
tp118
a(I1682
F0.007191
tp119
a(I813
F0.006901
tp120
a(I760
F0.006609
tp121
a(I1024
F0.006545
tp122
a(I1171
F0.006544
tp123
a(I743
F0.006223
tp124
a(I1212
F0.006197
tp125
a(I1520
F0.006004
tp126
a(I1030
F0.005617
tp127
a(I1174
F0.005433
tp128
a(I865
F0.005416
tp129
a(I807
F0.005312
tp130
a(I1211
F0.00531
tp131
a(I704
F0.005145
tp132
a(I1631
F0.005069
tp133
a(I1605
F0.004853
tp134
a(I1375
F0.00469
tp135
a(I961
F0.004629
tp136
a(I1368
F0.003641
tp137
a(I1009
F0.003593
tp138
a(I1570
F0.003408
tp139
a(I1099
F0.003388
tp140
a(I1213
F0.003365
tp141
a(I1502
F0.003055
tp142
a(I1381
F0.002935
tp143
a(I1115
F0.002834
tp144
a(I872
F0.002557
tp145
a(I1495
F0.002232
tp146
a(I869
F0.002168
tp147
a(I948
F0.001968
tp148
a(I1453
F0.001608
tp149
a(I1350
F0.001445
tp150
a(I965
F0.00131
tp151
a(I1252
F0.001273
tp152
a(I1224
F0.001052
tp153
aa(lp154
a(lp155
(I1774
F0.018522
tp156
a(I384
F0.018515
tp157
a(I1837
F0.018493
tp158
a(I1706
F0.018475
tp159
a(I1537
F0.018324
tp160
a(I1049
F0.018211
tp161
a(I2730
F0.017968
tp162
a(I2844
F0.01789
tp163
a(I1485
F0.017753
tp164
a(I1292
F0.017735
tp165
a(I2727
F0.017726
tp166
a(I669
F0.017573
tp167
a(I1716
F0.017518
tp168
a(I1448
F0.017509
tp169
a(I512
F0.017477
tp170
a(I1262
F0.017474
tp171
a(I613
F0.017435
tp172
aa(lp173
(I1695
F0.019379
tp174
a(I301
F0.019278
tp175
a(I1523
F0.019216
tp176
a(I2697
F0.0192
tp177
a(I797
F0.019198
tp178
a(I2557
F0.01913
tp179
a(I1882
F0.018987
tp180
a(I1549
F0.018888
tp181
a(I2104
F0.01887
tp182
a(I2073
F0.018796
tp183
a(I1235
F0.018795
tp184
a(I418
F0.018769
tp185
a(I1108
F0.018769
tp186
a(I629
F0.018753
tp187
a(I902
F0.018708
tp188
a(I2269
F0.018666
tp189
a(I994
F0.018623
tp190
aa(lp191
a(lp192
(I1985
F0.024375
tp193
a(I1755
F0.024318
tp194
a(I3116
F0.024246
tp195
a(I1623
F0.024203
tp196
a(I341
F0.024199
tp197
a(I3008
F0.024143
tp198
a(I3354
F0.024079
tp199
a(I875
F0.024042
tp200
a(I494
F0.024004
tp201
a(I3339
F0.023968
tp202
a(I1556
F0.023967
tp203
a(I893
F0.02396
tp204
a(I396
F0.023954
tp205
a(I306
F0.023836
tp206
a(I1647
F0.023756
tp207
a(I2081
F0.023736
tp208
a(I2151
F0.023672
tp209
a(I1953
F0.023633
tp210
a(I1218
F0.023568
tp211
a(I3163
F0.023567
tp212
a(I746
F0.0235
tp213
a(I3300
F0.023492
tp214
a(I625
F0.023372
tp215
a(I1175
F0.023369
tp216
a(I3117
F0.02336
tp217
a(I235
F0.023311
tp218
a(I2642
F0.02331
tp219
a(I1757
F0.023297
tp220
a(I2285
F0.023246
tp221
a(I2770
F0.02324
tp222
a(I2874
F0.023161
tp223
a(I1843
F0.023147
tp224
a(I761
F0.023085
tp225
a(I2569
F0.023046
tp226
a(I1997
F0.023029
tp227
a(I2956
F0.022943
tp228
a(I2311
F0.022898
tp229
a(I1815
F0.022848
tp230
a(I3286
F0.022752
tp231
a(I1382
F0.022729
tp232
a(I451
F0.022714
tp233
a(I1814
F0.022657
tp234
a(I3267
F0.022653
tp235
a(I1193
F0.02259
tp236
a(I2068
F0.022575
tp237
a(I1087
F0.022571
tp238
a(I974
F0.022503
tp239
a(I1905
F0.022428
tp240
a(I2198
F0.022384
tp241
a(I2915
F0.022375
tp242
a(I400
F0.022367
tp243
a(I3122
F0.02229
tp244
a(I257
F0.022208
tp245
a(I2286
F0.022171
tp246
a(I2531
F0.022117
tp247
a(I737
F0.022093
tp248
a(I309
F0.022055
tp249
a(I890
F0.022022
tp250
a(I937
F0.021952
tp251
a(I802
F0.021939
tp252
a(I2899
F0.02182
tp253
a(I2057
F0.021738
tp254
a(I702
F0.021618
tp255
a(I3324
F0.021512
tp256
a(I2097
F0.021498
tp257
a(I2983
F0.021401
tp258
a(I1932
F0.021331
tp259
a(I1435
F0.02133
tp260
a(I1680
F0.021244
tp261
a(I245
F0.021188
tp262
a(I719
F0.02118
tp263
a(I903
F0.021157
tp264
a(I1460
F0.021117
tp265
a(I2813
F0.02111
tp266
a(I2241
F0.021046
tp267
a(I1521
F0.020988
tp268
a(I1410
F0.020927
tp269
a(I2907
F0.020919
tp270
a(I2483
F0.020904
tp271
a(I2052
F0.020882
tp272
a(I311
F0.020855
tp273
a(I573
F0.020812
tp274
a(I3099
F0.02071
tp275
a(I1072
F0.0207
tp276
a(I3040
F0.020692
tp277
a(I1147
F0.020678
tp278
a(I2441
F0.020632
tp279
a(I2988
F0.020536
tp280
a(I1686
F0.020515
tp281
a(I2895
F0.020384
tp282
a(I833
F0.020323
tp283
a(I2054
F0.020296
tp284
a(I1725
F0.020227
tp285
a(I1763
F0.020193
tp286
a(I588
F0.02019
tp287
a(I1697
F0.020031
tp288
a(I755
F0.020029
tp289
a(I2850
F0.01998
tp290
a(I1809
F0.019966
tp291
a(I2759
F0.019856
tp292
a(I2206
F0.019694
tp293
a(I2004
F0.019683
tp294
a(I406
F0.019664
tp295
a(I1552
F0.019583
tp296
a(I1935
F0.019577
tp297
a(I1586
F0.019487
tp298
a(I1222
F0.019447
tp299
a(I1491
F0.01941
tp300
aa(lp301
a(lp302
(I2185
F0.025105
tp303
a(I2670
F0.025009
tp304
a(I2806
F0.024974
tp305
a(I2929
F0.024951
tp306
a(I1354
F0.024947
tp307
a(I741
F0.024883
tp308
a(I1356
F0.02487
tp309
a(I1721
F0.02484
tp310
a(I1956
F0.024805
tp311
a(I3328
F0.024793
tp312
a(I3091
F0.024767
tp313
a(I1878
F0.024711
tp314
a(I2110
F0.024655
tp315
a(I504
F0.024634
tp316
a(I3319
F0.024603
tp317
a(I3219
F0.024548
tp318
a(I2688
F0.02449
tp319
a(I2568
F0.024472
tp320
aa(lp321
(I2397
F0.025704
tp322
a(I2702
F0.025685
tp323
a(I859
F0.025622
tp324
a(I3357
F0.02559
tp325
a(I3276
F0.025472
tp326
a(I596
F0.025456
tp327
a(I1416
F0.025332
tp328
a(I2136
F0.025188
tp329
a(I1152
F0.025175
tp330
aa(lp331
a(lp332
(I2646
F0.031623
tp333
a(I2381
F0.031609
tp334
a(I3065
F0.031587
tp335
a(I3346
F0.0315
tp336
a(I2428
F0.031353
tp337
a(I1955
F0.031243
tp338
a(I305
F0.031114
tp339
a(I226
F0.031091
tp340
a(I1653
F0.030982
tp341
a(I2492
F0.030955
tp342
a(I1007
F0.030877
tp343
a(I1589
F0.030875
tp344
a(I3131
F0.030867
tp345
a(I2521
F0.030822
tp346
a(I3281
F0.030767
tp347
a(I1330
F0.030757
tp348
a(I2996
F0.030713
tp349
a(I1536
F0.030652
tp350
a(I1221
F0.030635
tp351
a(I1515
F0.030632
tp352
a(I3126
F0.03055
tp353
a(I428
F0.030531
tp354
a(I2194
F0.030429
tp355
a(I1033
F0.030386
tp356
a(I3257
F0.03037
tp357
a(I374
F0.030353
tp358
a(I729
F0.030334
tp359
a(I3031
F0.030145
tp360
a(I2755
F0.030127
tp361
a(I581
F0.030101
tp362
a(I2337
F0.030081
tp363
a(I3379
F0.029951
tp364
a(I1890
F0.029945
tp365
a(I3343
F0.029928
tp366
a(I3355
F0.029859
tp367
a(I3381
F0.029854
tp368
a(I2061
F0.029796
tp369
a(I2991
F0.029794
tp370
a(I2590
F0.029644
tp371
a(I204
F0.029585
tp372
a(I2660
F0.029555
tp373
a(I251
F0.029508
tp374
a(I1228
F0.029496
tp375
a(I458
F0.0294
tp376
a(I2482
F0.029387
tp377
a(I3363
F0.029358
tp378
a(I3114
F0.029341
tp379
a(I3344
F0.029304
tp380
a(I1366
F0.029232
tp381
a(I3387
F0.02914
tp382
a(I3181
F0.029119
tp383
a(I1080
F0.029118
tp384
a(I1384
F0.028988
tp385
a(I3061
F0.028979
tp386
a(I832
F0.028883
tp387
a(I3160
F0.028682
tp388
a(I2674
F0.028623
tp389
a(I3217
F0.028496
tp390
a(I570
F0.028477
tp391
a(I3188
F0.028414
tp392
a(I3334
F0.028404
tp393
a(I2366
F0.028401
tp394
a(I3366
F0.028391
tp395
a(I1239
F0.028355
tp396
a(I1465
F0.0283
tp397
a(I2885
F0.028264
tp398
a(I1870
F0.028192
tp399
a(I3314
F0.028177
tp400
a(I2978
F0.028143
tp401
a(I1737
F0.028123
tp402
a(I1547
F0.028104
tp403
a(I715
F0.02805
tp404
a(I3383
F0.028046
tp405
a(I2060
F0.028009
tp406
a(I2425
F0.027967
tp407
a(I3146
F0.027929
tp408
a(I1604
F0.027877
tp409
a(I2578
F0.027868
tp410
a(I3213
F0.027867
tp411
a(I1735
F0.027856
tp412
a(I382
F0.027758
tp413
a(I3270
F0.027742
tp414
a(I474
F0.027723
tp415
a(I2260
F0.027638
tp416
a(I1496
F0.027423
tp417
a(I299
F0.027375
tp418
a(I2019
F0.027311
tp419
a(I956
F0.027305
tp420
a(I1558
F0.027251
tp421
a(I2146
F0.027236
tp422
a(I3372
F0.027229
tp423
a(I2414
F0.027226
tp424
a(I1322
F0.027149
tp425
a(I1079
F0.027041
tp426
a(I3312
F0.026964
tp427
a(I3356
F0.026964
tp428
a(I3342
F0.026959
tp429
a(I2510
F0.026881
tp430
a(I3042
F0.026817
tp431
a(I1428
F0.026787
tp432
a(I3259
F0.026777
tp433
a(I2010
F0.02662
tp434
a(I1760
F0.02653
tp435
a(I2500
F0.02643
tp436
a(I308
F0.0264
tp437
a(I1813
F0.026392
tp438
a(I1078
F0.026296
tp439
a(I2376
F0.026291
tp440
a(I1888
F0.026223
tp441
a(I256
F0.026206
tp442
a(I2489
F0.026165
tp443
a(I710
F0.026156
tp444
a(I2591
F0.026049
tp445
a(I983
F0.02602
tp446
a(I3275
F0.02596
tp447
a(I1044
F0.025858
tp448
a(I1489
F0.025832
tp449
a(I2157
F0.025816
tp450
a(I455
F0.025788
tp451
a(I750
F0.025755
tp452
a(I3378
F0.02574
tp453
aa(lp454
(I3125
F0.032243
tp455
a(I1506
F0.032212
tp456
a(I3121
F0.032149
tp457
a(I1188
F0.032105
tp458
a(I2752
F0.032083
tp459
aa(lp460
(I2838
F0.032865
tp461
a(I3118
F0.032591
tp462
a(I1661
F0.032584
tp463
a(I413
F0.032558
tp464
a(I2579
F0.032481
tp465
a(I1893
F0.03245
tp466
a(I2909
F0.032375
tp467
a(I2919
F0.032336
tp468
aa(lp469
(I854
F0.073525
tp470
a(I1572
F0.073423
tp471
a(I977
F0.073388
tp472
a(I805
F0.07334
tp473
a(I1977
F0.073337
tp474
a(I1004
F0.073071
tp475
a(I1227
F0.072912
tp476
a(I1370
F0.072765
tp477
a(I2499
F0.072765
tp478
a(I3203
F0.072736
tp479
a(I1414
F0.072717
tp480
a(I1390
F0.072716
tp481
a(I1353
F0.072661
tp482
a(I3278
F0.072659
tp483
a(I2239
F0.072615
tp484
a(I360
F0.072575
tp485
a(I2404
F0.072514
tp486
a(I1430
F0.072496
tp487
a(I1022
F0.072435
tp488
a(I1191
F0.072352
tp489
a(I362
F0.07235
tp490
a(I2696
F0.072281
tp491
a(I1254
F0.071704
tp492
a(I1622
F0.071593
tp493
a(I1168
F0.071507
tp494
a(I1762
F0.071464
tp495
a(I2548
F0.07126
tp496
a(I1546
F0.071088
tp497
a(I775
F0.071005
tp498
a(I1698
F0.070655
tp499
a(I1574
F0.070632
tp500
a(I2835
F0.070411
tp501
a(I250
F0.070266
tp502
a(I1386
F0.070042
tp503
a(I1419
F0.069556
tp504
a(I2725
F0.069438
tp505
a(I460
F0.069389
tp506
a(I839
F0.069204
tp507
a(I698
F0.06915
tp508
a(I609
F0.068999
tp509
a(I2396
F0.068826
tp510
a(I1471
F0.068798
tp511
a(I224
F0.06876
tp512
a(I644
F0.068685
tp513
a(I1275
F0.068591
tp514
a(I1287
F0.068478
tp515
a(I278
F0.068287
tp516
a(I1865
F0.068273
tp517
a(I1483
F0.068263
tp518
a(I284
F0.068235
tp519
a(I1693
F0.068191
tp520
a(I2726
F0.068154
tp521
a(I488
F0.068088
tp522
a(I1971
F0.068064
tp523
a(I271
F0.067918
tp524
a(I3239
F0.067396
tp525
a(I2621
F0.067385
tp526
a(I707
F0.067277
tp527
a(I3266
F0.067215
tp528
a(I2312
F0.066994
tp529
a(I1393
F0.066761
tp530
a(I1458
F0.066689
tp531
a(I1993
F0.066669
tp532
a(I239
F0.066341
tp533
a(I3204
F0.066233
tp534
a(I1041
F0.066099
tp535
a(I3156
F0.065957
tp536
a(I923
F0.065907
tp537
a(I3073
F0.065903
tp538
a(I2878
F0.065884
tp539
a(I2647
F0.065812
tp540
a(I2177
F0.065794
tp541
a(I2951
F0.065789
tp542
a(I1616
F0.065686
tp543
a(I1449
F0.065485
tp544
a(I2790
F0.065336
tp545
a(I3152
F0.065126
tp546
a(I542
F0.065115
tp547
a(I425
F0.065038
tp548
a(I2033
F0.064726
tp549
a(I2437
F0.064346
tp550
a(I1165
F0.064254
tp551
a(I246
F0.064085
tp552
a(I1704
F0.064082
tp553
a(I1666
F0.063988
tp554
a(I642
F0.06396
tp555
a(I2968
F0.06388
tp556
a(I2329
F0.063816
tp557
a(I203
F0.063766
tp558
a(I347
F0.063706
tp559
a(I378
F0.063553
tp560
a(I1559
F0.063547
tp561
a(I2032
F0.063406
tp562
a(I2190
F0.063351
tp563
a(I2714
F0.063222
tp564
a(I3064
F0.063099
tp565
a(I2282
F0.062936
tp566
a(I1497
F0.062911
tp567
a(I924
F0.062871
tp568
a(I3079
F0.062667
tp569
a(I234
F0.062519
tp570
a(I1639
F0.062324
tp571
a(I1855
F0.062107
tp572
a(I1756
F0.062032
tp573
a(I1710
F0.061803
tp574
a(I1440
F0.061459
tp575
a(I1861
F0.061312
tp576
a(I185
F0.061223
tp577
a(I2181
F0.061173
tp578
a(I1283
F0.061149
tp579
a(I3149
F0.060929
tp580
a(I1592
F0.060925
tp581
a(I2039
F0.060447
tp582
a(I3155
F0.060446
tp583
a(I2537
F0.060428
tp584
a(I212
F0.060183
tp585
a(I1039
F0.060139
tp586
a(I1501
F0.059994
tp587
a(I2577
F0.059884
tp588
a(I3011
F0.05984
tp589
a(I179
F0.059569
tp590
a(I334
F0.059505
tp591
a(I1652
F0.059397
tp592
a(I2392
F0.059379
tp593
a(I3007
F0.059207
tp594
a(I290
F0.059181
tp595
a(I566
F0.059168
tp596
a(I220
F0.058855
tp597
a(I1543
F0.058165
tp598
a(I1724
F0.058113
tp599
a(I1701
F0.057875
tp600
a(I2208
F0.057609
tp601
a(I1743
F0.057365
tp602
a(I209
F0.057331
tp603
a(I2864
F0.057257
tp604
a(I799
F0.057042
tp605
a(I2584
F0.056957
tp606
a(I1139
F0.056885
tp607
a(I1975
F0.056659
tp608
a(I3168
F0.056563
tp609
a(I440
F0.056517
tp610
a(I2715
F0.056187
tp611
a(I1266
F0.056127
tp612
a(I511
F0.056107
tp613
a(I3199
F0.056043
tp614
a(I3096
F0.056042
tp615
a(I2938
F0.055955
tp616
a(I2596
F0.055924
tp617
a(I1325
F0.055277
tp618
a(I1675
F0.054943
tp619
a(I295
F0.054589
tp620
a(I3169
F0.054538
tp621
a(I905
F0.054493
tp622
a(I3133
F0.054467
tp623
a(I647
F0.054402
tp624
a(I190
F0.054347
tp625
a(I3142
F0.054272
tp626
a(I1816
F0.054099
tp627
a(I2650
F0.054091
tp628
a(I233
F0.054079
tp629
a(I187
F0.054045
tp630
a(I1972
F0.053909
tp631
a(I1516
F0.053832
tp632
a(I1699
F0.053733
tp633
a(I2205
F0.053661
tp634
a(I363
F0.053333
tp635
a(I1092
F0.053327
tp636
a(I1522
F0.053008
tp637
a(I1445
F0.052984
tp638
a(I3180
F0.052906
tp639
a(I1333
F0.052894
tp640
a(I270
F0.052893
tp641
a(I666
F0.052791
tp642
a(I1020
F0.05274
tp643
a(I2244
F0.052738
tp644
a(I2856
F0.052349
tp645
a(I2416
F0.052242
tp646
a(I3059
F0.052214
tp647
a(I2986
F0.052176
tp648
a(I3022
F0.052099
tp649
a(I171
F0.052086
tp650
a(I1181
F0.05186
tp651
a(I2943
F0.051854
tp652
a(I3024
F0.051627
tp653
a(I222
F0.051552
tp654
a(I1421
F0.051527
tp655
a(I2676
F0.051527
tp656
a(I1819
F0.051288
tp657
a(I1969
F0.051171
tp658
a(I2134
F0.051003
tp659
a(I2777
F0.050844
tp660
a(I709
F0.050555
tp661
a(I1981
F0.050341
tp662
a(I422
F0.050232
tp663
a(I1568
F0.050215
tp664
a(I593
F0.049942
tp665
a(I215
F0.049926
tp666
a(I891
F0.049896
tp667
a(I3147
F0.049877
tp668
a(I2716
F0.049848
tp669
a(I2762
F0.049695
tp670
a(I1663
F0.049678
tp671
a(I3080
F0.049656
tp672
a(I1902
F0.0496
tp673
a(I2916
F0.049541
tp674
a(I2268
F0.049214
tp675
a(I259
F0.049207
tp676
a(I2559
F0.04915
tp677
a(I1332
F0.049148
tp678
a(I180
F0.048766
tp679
a(I1409
F0.04853
tp680
a(I1796
F0.048372
tp681
a(I1681
F0.04827
tp682
a(I2594
F0.047756
tp683
a(I2962
F0.047732
tp684
a(I3128
F0.047409
tp685
a(I3097
F0.046915
tp686
a(I2350
F0.046803
tp687
a(I1754
F0.046568
tp688
a(I2439
F0.046518
tp689
a(I1498
F0.046477
tp690
a(I3019
F0.046126
tp691
a(I2896
F0.046072
tp692
a(I1392
F0.045865
tp693
a(I3014
F0.045709
tp694
a(I2207
F0.045478
tp695
a(I2053
F0.045468
tp696
a(I197
F0.04543
tp697
a(I657
F0.045363
tp698
a(I356
F0.045228
tp699
a(I1562
F0.044996
tp700
a(I1876
F0.044857
tp701
a(I248
F0.044756
tp702
a(I240
F0.044729
tp703
a(I934
F0.044688
tp704
a(I172
F0.044567
tp705
a(I1306
F0.044545
tp706
a(I3028
F0.044366
tp707
a(I2776
F0.044361
tp708
a(I402
F0.044346
tp709
a(I2780
F0.044074
tp710
a(I2971
F0.044002
tp711
a(I1271
F0.043999
tp712
a(I2440
F0.043651
tp713
a(I3112
F0.043596
tp714
a(I170
F0.043499
tp715
a(I1097
F0.043477
tp716
a(I1344
F0.043403
tp717
a(I2600
F0.043394
tp718
a(I1645
F0.043298
tp719
a(I3088
F0.042928
tp720
a(I3063
F0.042866
tp721
a(I549
F0.042545
tp722
a(I991
F0.042517
tp723
a(I1066
F0.042396
tp724
a(I195
F0.042372
tp725
a(I288
F0.042247
tp726
a(I2947
F0.042063
tp727
a(I296
F0.041922
tp728
a(I1646
F0.041782
tp729
a(I2558
F0.041596
tp730
a(I2527
F0.041538
tp731
a(I2433
F0.041386
tp732
a(I2327
F0.041163
tp733
a(I2843
F0.040965
tp734
a(I1649
F0.040921
tp735
a(I1829
F0.040846
tp736
a(I653
F0.040807
tp737
a(I3082
F0.040512
tp738
a(I795
F0.040319
tp739
a(I2886
F0.040309
tp740
a(I1487
F0.040285
tp741
a(I1484
F0.039893
tp742
a(I3023
F0.039836
tp743
a(I1612
F0.03968
tp744
a(I2140
F0.039674
tp745
a(I181
F0.039434
tp746
a(I2309
F0.039355
tp747
a(I3106
F0.039137
tp748
a(I393
F0.038938
tp749
a(I2659
F0.038851
tp750
a(I3109
F0.038796
tp751
a(I1987
F0.038695
tp752
a(I247
F0.038584
tp753
a(I2942
F0.038456
tp754
a(I1959
F0.038432
tp755
a(I2490
F0.038183
tp756
a(I2666
F0.038094
tp757
a(I2201
F0.037893
tp758
a(I1715
F0.037818
tp759
a(I2934
F0.037801
tp760
a(I3060
F0.037749
tp761
a(I176
F0.037738
tp762
a(I300
F0.037591
tp763
a(I1388
F0.037465
tp764
a(I2954
F0.037412
tp765
a(I196
F0.037329
tp766
a(I3026
F0.037075
tp767
a(I1571
F0.036937
tp768
a(I1826
F0.036819
tp769
a(I2387
F0.036744
tp770
a(I2723
F0.036688
tp771
a(I388
F0.036684
tp772
a(I2849
F0.036532
tp773
a(I1751
F0.036483
tp774
a(I1347
F0.036412
tp775
a(I2148
F0.036354
tp776
a(I211
F0.036304
tp777
a(I1264
F0.036276
tp778
a(I3087
F0.035869
tp779
a(I527
F0.035818
tp780
a(I1575
F0.035434
tp781
a(I3013
F0.035423
tp782
a(I1412
F0.035409
tp783
a(I1373
F0.035406
tp784
a(I2783
F0.035367
tp785
a(I2891
F0.035128
tp786
a(I2062
F0.035016
tp787
a(I606
F0.034958
tp788
a(I217
F0.034893
tp789
a(I1111
F0.034698
tp790
a(I2106
F0.03444
tp791
a(I3044
F0.034353
tp792
a(I1658
F0.034317
tp793
a(I2877
F0.034315
tp794
a(I1772
F0.034299
tp795
a(I2937
F0.03429
tp796
a(I651
F0.034259
tp797
a(I2191
F0.034025
tp798
a(I2764
F0.034015
tp799
a(I1486
F0.03368
tp800
a(I206
F0.033597
tp801
a(I244
F0.033526
tp802
a(I3092
F0.033423
tp803
a(I882
F0.033321
tp804
a(I2253
F0.033286
tp805
a(I1259
F0.03328
tp806
a(I1759
F0.033181
tp807
a(I3110
F0.033101
tp808
aa(lp809
(I303
F0.286089
tp810
a(I913
F0.285339
tp811
a(I265
F0.283945
tp812
a(I676
F0.283372
tp813
a(I280
F0.282809
tp814
a(I253
F0.28069
tp815
a(I389
F0.280636
tp816
a(I207
F0.280131
tp817
a(I537
F0.279482
tp818
a(I208
F0.279054
tp819
a(I358
F0.278744
tp820
a(I844
F0.278425
tp821
a(I962
F0.277115
tp822
a(I421
F0.276209
tp823
a(I763
F0.27583
tp824
a(I624
F0.274854
tp825
a(I160
F0.273902
tp826
a(I264
F0.272678
tp827
a(I237
F0.272436
tp828
a(I843
F0.271657
tp829
a(I1074
F0.271089
tp830
a(I1112
F0.27043
tp831
a(I325
F0.270376
tp832
a(I587
F0.270134
tp833
a(I168
F0.269381
tp834
a(I242
F0.26828
tp835
a(I186
F0.267962
tp836
a(I1008
F0.267344
tp837
a(I1128
F0.266581
tp838
a(I151
F0.263558
tp839
a(I774
F0.263478
tp840
a(I376
F0.263025
tp841
a(I556
F0.262968
tp842
a(I1149
F0.262522
tp843
a(I695
F0.261668
tp844
a(I159
F0.260398
tp845
a(I297
F0.258643
tp846
a(I1065
F0.257685
tp847
a(I825
F0.257634
tp848
a(I157
F0.257297
tp849
a(I1070
F0.256601
tp850
a(I1233
F0.256463
tp851
a(I516
F0.255677
tp852
a(I198
F0.254219
tp853
a(I291
F0.252887
tp854
a(I462
F0.252402
tp855
a(I1208
F0.251668
tp856
a(I273
F0.250437
tp857
a(I339
F0.249672
tp858
a(I630
F0.2484
tp859
a(I840
F0.247931
tp860
a(I744
F0.247772
tp861
a(I229
F0.246733
tp862
a(I1187
F0.246708
tp863
a(I546
F0.246381
tp864
a(I970
F0.245264
tp865
a(I1090
F0.244562
tp866
a(I178
F0.2444
tp867
a(I636
F0.243789
tp868
a(I225
F0.243462
tp869
a(I188
F0.243431
tp870
a(I876
F0.241533
tp871
a(I156
F0.237916
tp872
a(I1156
F0.237287
tp873
a(I867
F0.235529
tp874
a(I1003
F0.232106
tp875
a(I335
F0.231351
tp876
a(I343
F0.231351
tp877
a(I357
F0.228573
tp878
a(I804
F0.227897
tp879
a(I1247
F0.22695
tp880
a(I884
F0.226012
tp881
a(I506
F0.22566
tp882
a(I205
F0.225007
tp883
a(I241
F0.224531
tp884
a(I1255
F0.220563
tp885
a(I177
F0.220357
tp886
a(I671
F0.219422
tp887
a(I1167
F0.219169
tp888
a(I621
F0.217299
tp889
a(I845
F0.21337
tp890
a(I993
F0.213306
tp891
a(I1153
F0.211768
tp892
a(I191
F0.209328
tp893
a(I495
F0.208918
tp894
a(I269
F0.208915
tp895
a(I597
F0.207034
tp896
a(I1071
F0.206668
tp897
a(I1123
F0.203033
tp898
a(I1054
F0.202092
tp899
a(I835
F0.201155
tp900
a(I1230
F0.200755
tp901
a(I213
F0.198883
tp902
a(I1220
F0.197273
tp903
a(I1155
F0.195896
tp904
a(I519
F0.191665
tp905
a(I277
F0.190197
tp906
a(I568
F0.189944
tp907
a(I691
F0.189646
tp908
a(I920
F0.188849
tp909
a(I812
F0.188755
tp910
a(I249
F0.188138
tp911
a(I998
F0.18748
tp912
a(I370
F0.18327
tp913
a(I1053
F0.183131
tp914
a(I314
F0.182944
tp915
a(I995
F0.182654
tp916
a(I408
F0.18141
tp917
a(I367
F0.179788
tp918
a(I524
F0.17966
tp919
a(I1143
F0.179597
tp920
a(I696
F0.173756
tp921
a(I806
F0.171332
tp922
a(I917
F0.170838
tp923
a(I1198
F0.168087
tp924
a(I1002
F0.167216
tp925
a(I1210
F0.165673
tp926
a(I468
F0.161439
tp927
a(I1110
F0.161101
tp928
a(I317
F0.159751
tp929
a(I315
F0.157331
tp930
a(I1075
F0.155374
tp931
a(I773
F0.150287
tp932
a(I886
F0.148321
tp933
a(I350
F0.147635
tp934
a(I690
F0.146234
tp935
a(I1150
F0.144511
tp936
a(I986
F0.138834
tp937
a(I809
F0.134497
tp938
a(I1206
F0.134057
tp939
a(I694
F0.133637
tp940
a(I369
F0.132363
tp941
a(I927
F0.130398
tp942
a(I492
F0.130368
tp943
a(I999
F0.129531
tp944
a(I692
F0.129347
tp945
a(I397
F0.128563
tp946
a(I1023
F0.126649
tp947
a(I1120
F0.124913
tp948
a(I1244
F0.124414
tp949
a(I467
F0.124362
tp950
a(I856
F0.123953
tp951
a(I781
F0.123508
tp952
a(I1019
F0.122098
tp953
a(I1119
F0.120064
tp954
a(I1189
F0.11925
tp955
a(I1226
F0.117548
tp956
a(I409
F0.116859
tp957
a(I372
F0.116554
tp958
a(I554
F0.116265
tp959
a(I693
F0.114851
tp960
a(I547
F0.113759
tp961
a(I349
F0.113339
tp962
a(I899
F0.112572
tp963
a(I1062
F0.111982
tp964
a(I430
F0.111298
tp965
a(I585
F0.108057
tp966
a(I1310
F0.106582
tp967
a(I782
F0.106453
tp968
a(I1184
F0.104989
tp969
a(I682
F0.104028
tp970
a(I427
F0.10388
tp971
a(I1037
F0.103446
tp972
a(I1284
F0.103205
tp973
a(I473
F0.102811
tp974
a(I1314
F0.102416
tp975
a(I553
F0.102005
tp976
a(I1169
F0.098185
tp977
a(I598
F0.09805
tp978
a(I846
F0.096217
tp979
a(I520
F0.095534
tp980
a(I500
F0.095472
tp981
a(I677
F0.09491
tp982
a(I1336
F0.092864
tp983
a(I1018
F0.092182
tp984
a(I1142
F0.091026
tp985
a(I911
F0.089869
tp986
a(I313
F0.088208
tp987
a(I1257
F0.085797
tp988
a(I307
F0.085673
tp989
a(I749
F0.085333
tp990
a(I569
F0.085151
tp991
a(I414
F0.084918
tp992
a(I332
F0.084886
tp993
a(I266
F0.08393
tp994
a(I841
F0.082887
tp995
a(I1103
F0.082635
tp996
a(I302
F0.082301
tp997
a(I238
F0.081119
tp998
a(I1027
F0.081111
tp999
a(I618
F0.080907
tp1000
a(I330
F0.079984
tp1001
a(I868
F0.079873
tp1002
a(I395
F0.07959
tp1003
a(I381
F0.078086
tp1004
a(I1192
F0.075845
tp1005
a(I941
F0.075811
tp1006
a(I739
F0.075638
tp1007
a(I1263
F0.075557
tp1008
a(I283
F0.075507
tp1009
a(I424
F0.073844
tp1010
aa(lp1011
(I391
F0.288091
tp1012
aa(lp1013
a(lp1014
(I1529
F0.07413
tp1015
a(I3287
F0.073998
tp1016
a(I942
F0.073929
tp1017
a(I1797
F0.073904
tp1018
a(I3310
F0.073822
tp1019
a(I1863
F0.07381
tp1020
a(I1312
F0.073753
tp1021
aa(lp1022
a(lp1023
(I2630
F0.07563
tp1024
a(I2713
F0.075606
tp1025
a(I1936
F0.075568
tp1026
a(I2921
F0.075556
tp1027
a(I2291
F0.075355
tp1028
a(I1151
F0.075256
tp1029
a(I3053
F0.074873
tp1030
a(I2109
F0.0747
tp1031
a(I1629
F0.074696
tp1032
a(I1617
F0.074681
tp1033
a(I2787
F0.074657
tp1034
a(I3255
F0.074624
tp1035
a(I2459
F0.074546
tp1036
a(I3302
F0.074326
tp1037
a(I2445
F0.074288
tp1038
aa(lp1039
a(lp1040
(I1785
F0.086527
tp1041
a(I3279
F0.086502
tp1042
a(I2586
F0.086398
tp1043
a(I2313
F0.086249
tp1044
a(I2436
F0.086016
tp1045
a(I3368
F0.085918
tp1046
a(I2029
F0.085825
tp1047
a(I2349
F0.085703
tp1048
a(I2279
F0.08569
tp1049
a(I2792
F0.085329
tp1050
a(I1687
F0.085283
tp1051
a(I1696
F0.085262
tp1052
a(I1750
F0.085252
tp1053
a(I3029
F0.084831
tp1054
a(I2379
F0.084711
tp1055
a(I2488
F0.084636
tp1056
a(I2341
F0.084503
tp1057
a(I3320
F0.084492
tp1058
a(I2541
F0.08411
tp1059
a(I1602
F0.084054
tp1060
a(I2471
F0.084004
tp1061
a(I1734
F0.083831
tp1062
a(I2728
F0.083748
tp1063
a(I3375
F0.083692
tp1064
a(I2549
F0.083607
tp1065
a(I1717
F0.083397
tp1066
a(I2631
F0.083158
tp1067
a(I3098
F0.083083
tp1068
a(I3362
F0.082603
tp1069
a(I3351
F0.082133
tp1070
a(I2794
F0.082008
tp1071
a(I1690
F0.081997
tp1072
a(I1635
F0.08199
tp1073
a(I1599
F0.081962
tp1074
a(I2614
F0.081864
tp1075
a(I2897
F0.081649
tp1076
a(I2903
F0.081557
tp1077
a(I2363
F0.081458
tp1078
a(I2401
F0.081447
tp1079
a(I1767
F0.081437
tp1080
a(I1457
F0.081231
tp1081
a(I1840
F0.08099
tp1082
a(I1591
F0.080929
tp1083
a(I1918
F0.080877
tp1084
a(I3113
F0.080572
tp1085
a(I1674
F0.080412
tp1086
a(I1576
F0.08032
tp1087
a(I2517
F0.080119
tp1088
a(I2096
F0.08007
tp1089
a(I1519
F0.079958
tp1090
a(I3374
F0.079895
tp1091
a(I1980
F0.079611
tp1092
a(I1667
F0.079441
tp1093
a(I1403
F0.079341
tp1094
a(I2365
F0.079163
tp1095
a(I2461
F0.07916
tp1096
a(I3293
F0.0791
tp1097
a(I1726
F0.078997
tp1098
a(I1630
F0.078818
tp1099
a(I3218
F0.078791
tp1100
a(I2581
F0.078615
tp1101
a(I1447
F0.078609
tp1102
a(I1186
F0.078504
tp1103
a(I1637
F0.078472
tp1104
a(I2667
F0.078437
tp1105
a(I3327
F0.078361
tp1106
a(I1748
F0.078357
tp1107
a(I2973
F0.078196
tp1108
a(I3326
F0.078142
tp1109
a(I3006
F0.07798
tp1110
a(I1853
F0.077938
tp1111
a(I2212
F0.07786
tp1112
a(I2364
F0.07782
tp1113
a(I2400
F0.077749
tp1114
a(I2315
F0.077718
tp1115
a(I1291
F0.077708
tp1116
a(I3164
F0.07749
tp1117
a(I1641
F0.077202
tp1118
a(I1607
F0.077149
tp1119
a(I1405
F0.076977
tp1120
a(I1651
F0.076718
tp1121
a(I2431
F0.076712
tp1122
a(I1411
F0.076588
tp1123
a(I1747
F0.076509
tp1124
a(I2084
F0.076113
tp1125
a(I3230
F0.075999
tp1126
a(I1202
F0.07599
tp1127
a(I925
F0.075894
tp1128
a(I3322
F0.075778
tp1129
a(I1299
F0.075653
tp1130
aa(lp1131
a(lp1132
(I3167
F0.089051
tp1133
a(I1793
F0.088877
tp1134
a(I2162
F0.088823
tp1135
a(I3055
F0.088683
tp1136
a(I1842
F0.088569
tp1137
a(I2325
F0.088293
tp1138
a(I3318
F0.087824
tp1139
a(I3376
F0.087711
tp1140
a(I1808
F0.087684
tp1141
a(I1886
F0.087541
tp1142
a(I2121
F0.087496
tp1143
a(I2278
F0.087391
tp1144
a(I2694
F0.087342
tp1145
a(I1881
F0.087283
tp1146
a(I2393
F0.086639
tp1147
a(I1662
F0.086621
tp1148
a(I3308
F0.086566
tp1149
aa(lp1150
(I223
F0.541156
tp1151
a(I115
F0.539497
tp1152
a(I231
F0.538907
tp1153
a(I121
F0.537723
tp1154
a(I255
F0.534673
tp1155
a(I117
F0.53368
tp1156
a(I136
F0.533283
tp1157
a(I189
F0.53277
tp1158
a(I324
F0.529306
tp1159
a(I95
F0.528424
tp1160
a(I232
F0.52699
tp1161
a(I163
F0.526405
tp1162
a(I94
F0.525669
tp1163
a(I379
F0.524961
tp1164
a(I139
F0.522067
tp1165
a(I193
F0.521512
tp1166
a(I411
F0.520625
tp1167
a(I128
F0.519766
tp1168
a(I92
F0.519748
tp1169
a(I346
F0.51956
tp1170
a(I286
F0.519264
tp1171
a(I102
F0.517925
tp1172
a(I110
F0.51588
tp1173
a(I120
F0.515713
tp1174
a(I561
F0.513369
tp1175
a(I221
F0.512173
tp1176
a(I627
F0.503117
tp1177
a(I174
F0.499843
tp1178
a(I405
F0.499523
tp1179
a(I708
F0.498604
tp1180
a(I321
F0.498089
tp1181
a(I536
F0.497616
tp1182
a(I509
F0.493648
tp1183
a(I134
F0.492263
tp1184
a(I861
F0.491141
tp1185
a(I316
F0.488523
tp1186
a(I258
F0.488241
tp1187
a(I201
F0.488062
tp1188
a(I119
F0.48765
tp1189
a(I688
F0.487
tp1190
a(I753
F0.486947
tp1191
a(I147
F0.484368
tp1192
a(I154
F0.482033
tp1193
a(I281
F0.478069
tp1194
a(I610
F0.474893
tp1195
a(I921
F0.463303
tp1196
a(I821
F0.462842
tp1197
a(I1100
F0.460628
tp1198
a(I612
F0.45886
tp1199
a(I454
F0.456669
tp1200
a(I513
F0.456314
tp1201
a(I631
F0.455825
tp1202
a(I1146
F0.454816
tp1203
a(I834
F0.454592
tp1204
a(I293
F0.453374
tp1205
a(I1158
F0.447548
tp1206
a(I377
F0.446781
tp1207
a(I583
F0.446767
tp1208
a(I412
F0.44428
tp1209
a(I601
F0.440307
tp1210
a(I1028
F0.440278
tp1211
a(I375
F0.437148
tp1212
a(I423
F0.436166
tp1213
a(I964
F0.434378
tp1214
a(I622
F0.431242
tp1215
a(I912
F0.430732
tp1216
a(I1163
F0.430489
tp1217
a(I826
F0.429292
tp1218
a(I1172
F0.42517
tp1219
a(I1270
F0.425047
tp1220
a(I1422
F0.422861
tp1221
a(I1478
F0.420127
tp1222
a(I1084
F0.419216
tp1223
a(I1499
F0.418545
tp1224
a(I987
F0.418396
tp1225
a(I1406
F0.413073
tp1226
a(I988
F0.410411
tp1227
a(I680
F0.40861
tp1228
a(I1425
F0.405849
tp1229
a(I615
F0.403786
tp1230
a(I1196
F0.400408
tp1231
a(I860
F0.399956
tp1232
a(I720
F0.399955
tp1233
a(I955
F0.39951
tp1234
a(I1038
F0.398752
tp1235
a(I769
F0.398025
tp1236
a(I1290
F0.394624
tp1237
a(I1441
F0.387624
tp1238
a(I1694
F0.384249
tp1239
a(I1369
F0.384136
tp1240
a(I1703
F0.383702
tp1241
a(I1633
F0.381617
tp1242
a(I1540
F0.38041
tp1243
a(I1566
F0.377971
tp1244
a(I1615
F0.377793
tp1245
a(I1492
F0.375442
tp1246
a(I1463
F0.375134
tp1247
a(I1374
F0.37386
tp1248
a(I1232
F0.373093
tp1249
a(I1302
F0.36655
tp1250
a(I1130
F0.364017
tp1251
a(I1215
F0.36192
tp1252
a(I1249
F0.359445
tp1253
a(I1234
F0.358459
tp1254
a(I1157
F0.356013
tp1255
a(I1688
F0.354308
tp1256
a(I1464
F0.351226
tp1257
a(I1596
F0.350915
tp1258
a(I1691
F0.350319
tp1259
a(I1746
F0.348773
tp1260
a(I1798
F0.347064
tp1261
a(I1839
F0.345952
tp1262
a(I1640
F0.343689
tp1263
a(I1931
F0.342978
tp1264
a(I1594
F0.342392
tp1265
a(I1930
F0.341605
tp1266
a(I1800
F0.339622
tp1267
a(I1708
F0.337436
tp1268
a(I1898
F0.336732
tp1269
a(I1812
F0.333151
tp1270
a(I1619
F0.331655
tp1271
a(I1582
F0.331631
tp1272
a(I1934
F0.326586
tp1273
a(I1473
F0.325948
tp1274
a(I1961
F0.322473
tp1275
a(I1660
F0.32089
tp1276
a(I1784
F0.318694
tp1277
a(I1833
F0.318083
tp1278
a(I1908
F0.317984
tp1279
a(I1609
F0.317748
tp1280
a(I1481
F0.317728
tp1281
a(I1563
F0.316079
tp1282
a(I1494
F0.315595
tp1283
a(I1867
F0.309972
tp1284
a(I2082
F0.309031
tp1285
a(I2218
F0.30862
tp1286
a(I2117
F0.304296
tp1287
a(I2204
F0.303769
tp1288
a(I2168
F0.302709
tp1289
a(I1947
F0.300243
tp1290
a(I1729
F0.299651
tp1291
a(I2152
F0.298082
tp1292
a(I2094
F0.297736
tp1293
a(I1973
F0.296664
tp1294
a(I1917
F0.293453
tp1295
a(I1974
F0.293379
tp1296
a(I1685
F0.291698
tp1297
a(I2290
F0.29102
tp1298
a(I2333
F0.290948
tp1299
a(I1925
F0.290435
tp1300
a(I1836
F0.288672
tp1301
a(I2273
F0.288042
tp1302
a(I1714
F0.28691
tp1303
a(I1644
F0.285336
tp1304
a(I1673
F0.283368
tp1305
a(I1847
F0.281831
tp1306
a(I2234
F0.280494
tp1307
a(I1834
F0.280471
tp1308
a(I1805
F0.276588
tp1309
a(I2174
F0.276378
tp1310
a(I2247
F0.275561
tp1311
a(I2092
F0.274238
tp1312
a(I1787
F0.273501
tp1313
a(I2319
F0.271918
tp1314
a(I1803
F0.271099
tp1315
a(I2107
F0.270768
tp1316
a(I2031
F0.267861
tp1317
a(I2161
F0.266351
tp1318
a(I1894
F0.265928
tp1319
a(I1831
F0.2633
tp1320
a(I2015
F0.261945
tp1321
a(I2405
F0.260333
tp1322
a(I1873
F0.259565
tp1323
a(I2326
F0.25928
tp1324
a(I2002
F0.256824
tp1325
a(I2394
F0.253907
tp1326
a(I2419
F0.25385
tp1327
a(I2167
F0.248017
tp1328
a(I2354
F0.246908
tp1329
a(I2300
F0.245953
tp1330
a(I1849
F0.243214
tp1331
a(I1845
F0.242995
tp1332
a(I1928
F0.242093
tp1333
a(I2101
F0.240157
tp1334
a(I2095
F0.238884
tp1335
a(I1906
F0.236874
tp1336
a(I2046
F0.236815
tp1337
a(I2243
F0.236764
tp1338
a(I2173
F0.234453
tp1339
a(I2357
F0.232446
tp1340
a(I2187
F0.23204
tp1341
a(I1990
F0.231671
tp1342
a(I2041
F0.231374
tp1343
a(I1941
F0.230106
tp1344
a(I2444
F0.227268
tp1345
a(I2262
F0.227088
tp1346
a(I2464
F0.226447
tp1347
a(I2138
F0.226002
tp1348
a(I2470
F0.220656
tp1349
a(I1901
F0.218944
tp1350
a(I2304
F0.216819
tp1351
a(I1889
F0.213494
tp1352
a(I1933
F0.212799
tp1353
a(I2402
F0.212362
tp1354
a(I1921
F0.210734
tp1355
a(I2386
F0.210702
tp1356
a(I2230
F0.208499
tp1357
a(I2307
F0.206692
tp1358
a(I2430
F0.20441
tp1359
a(I2423
F0.202891
tp1360
a(I2028
F0.202202
tp1361
a(I2105
F0.201376
tp1362
a(I1992
F0.200693
tp1363
a(I1915
F0.200384
tp1364
a(I2192
F0.200222
tp1365
a(I1995
F0.199345
tp1366
a(I1858
F0.198206
tp1367
a(I2442
F0.197344
tp1368
a(I1926
F0.196569
tp1369
a(I2145
F0.195378
tp1370
a(I2063
F0.194904
tp1371
a(I1856
F0.192398
tp1372
a(I1846
F0.1856
tp1373
a(I2338
F0.183897
tp1374
a(I2254
F0.183406
tp1375
a(I2336
F0.181237
tp1376
a(I2165
F0.181139
tp1377
a(I1945
F0.180141
tp1378
a(I1799
F0.179561
tp1379
a(I2259
F0.179468
tp1380
a(I2374
F0.179298
tp1381
a(I1885
F0.17888
tp1382
a(I2158
F0.175241
tp1383
a(I2380
F0.17385
tp1384
a(I1782
F0.17212
tp1385
a(I2058
F0.170242
tp1386
a(I2343
F0.168911
tp1387
a(I1891
F0.16878
tp1388
a(I1818
F0.168552
tp1389
a(I2075
F0.168431
tp1390
a(I1983
F0.167901
tp1391
a(I2003
F0.165715
tp1392
a(I2202
F0.16246
tp1393
a(I2264
F0.161101
tp1394
a(I2133
F0.157456
tp1395
a(I1909
F0.156996
tp1396
a(I2050
F0.155846
tp1397
a(I1848
F0.155039
tp1398
a(I2224
F0.152682
tp1399
a(I1795
F0.149036
tp1400
a(I2292
F0.148634
tp1401
a(I1764
F0.142448
tp1402
a(I2339
F0.137844
tp1403
a(I1976
F0.137491
tp1404
a(I1779
F0.135802
tp1405
a(I2178
F0.134947
tp1406
a(I2008
F0.134481
tp1407
a(I2344
F0.133343
tp1408
a(I2080
F0.133342
tp1409
a(I2308
F0.133203
tp1410
a(I2119
F0.132787
tp1411
a(I1766
F0.132411
tp1412
a(I2232
F0.131096
tp1413
a(I1899
F0.130943
tp1414
a(I1807
F0.130077
tp1415
a(I2246
F0.127392
tp1416
a(I1736
F0.127137
tp1417
a(I1904
F0.127131
tp1418
a(I2294
F0.12713
tp1419
a(I1775
F0.127028
tp1420
a(I1711
F0.126283
tp1421
a(I2034
F0.120667
tp1422
a(I1965
F0.12027
tp1423
a(I1806
F0.119914
tp1424
a(I2156
F0.118465
tp1425
a(I2143
F0.118214
tp1426
a(I2345
F0.110815
tp1427
a(I1825
F0.108967
tp1428
a(I2263
F0.108851
tp1429
a(I2184
F0.108641
tp1430
a(I2038
F0.10827
tp1431
a(I2318
F0.107166
tp1432
a(I1732
F0.106531
tp1433
a(I1707
F0.105169
tp1434
a(I1962
F0.104878
tp1435
a(I1883
F0.104321
tp1436
a(I2293
F0.103882
tp1437
a(I2225
F0.101059
tp1438
a(I2346
F0.10092
tp1439
a(I1671
F0.100766
tp1440
a(I2043
F0.100752
tp1441
a(I1950
F0.099967
tp1442
a(I1720
F0.099891
tp1443
a(I2125
F0.099437
tp1444
a(I1820
F0.096869
tp1445
a(I1892
F0.096423
tp1446
a(I1986
F0.095723
tp1447
a(I2295
F0.095329
tp1448
a(I2221
F0.095303
tp1449
a(I2369
F0.09488
tp1450
a(I2256
F0.093932
tp1451
a(I1679
F0.093855
tp1452
a(I1781
F0.093661
tp1453
a(I1733
F0.093492
tp1454
a(I2129
F0.093023
tp1455
a(I1857
F0.092442
tp1456
a(I2141
F0.091988
tp1457
a(I2370
F0.090773
tp1458
a(I2155
F0.090202
tp1459
a(I2007
F0.090052
tp1460
a(I1944
F0.089398
tp1461
aa(lp1462
(I2604
F0.103496
tp1463
a(I3104
F0.103312
tp1464
a(I3248
F0.10328
tp1465
a(I3371
F0.103174
tp1466
a(I3341
F0.10306
tp1467
a(I2395
F0.102848
tp1468
a(I2479
F0.102823
tp1469
a(I2627
F0.102718
tp1470
a(I2823
F0.102695
tp1471
a(I2473
F0.102486
tp1472
a(I2421
F0.101941
tp1473
a(I2735
F0.10165
tp1474
a(I2351
F0.100581
tp1475
a(I2734
F0.100405
tp1476
a(I2242
F0.099791
tp1477
a(I2227
F0.099396
tp1478
a(I2474
F0.098984
tp1479
a(I3331
F0.098809
tp1480
a(I2496
F0.098536
tp1481
a(I2873
F0.09817
tp1482
a(I3315
F0.098005
tp1483
a(I2638
F0.097919
tp1484
a(I3182
F0.097491
tp1485
a(I2465
F0.097395
tp1486
a(I2562
F0.097027
tp1487
a(I3391
F0.096909
tp1488
a(I2277
F0.096771
tp1489
a(I2103
F0.096466
tp1490
a(I3370
F0.096354
tp1491
a(I3385
F0.096305
tp1492
a(I2108
F0.096275
tp1493
a(I2911
F0.096026
tp1494
a(I2347
F0.09555
tp1495
a(I2197
F0.095132
tp1496
a(I2072
F0.094353
tp1497
a(I3395
F0.094234
tp1498
a(I3253
F0.093992
tp1499
a(I2801
F0.093587
tp1500
a(I3291
F0.093471
tp1501
a(I2750
F0.093061
tp1502
a(I1958
F0.092968
tp1503
a(I2182
F0.092368
tp1504
a(I2424
F0.092306
tp1505
a(I2147
F0.092048
tp1506
a(I2655
F0.092037
tp1507
a(I1951
F0.092006
tp1508
a(I2030
F0.091968
tp1509
a(I3187
F0.091562
tp1510
a(I2698
F0.091396
tp1511
a(I3365
F0.091009
tp1512
a(I2478
F0.091008
tp1513
a(I1963
F0.09099
tp1514
a(I1970
F0.090648
tp1515
a(I2923
F0.090561
tp1516
a(I2466
F0.090221
tp1517
a(I1957
F0.090063
tp1518
a(I2214
F0.089724
tp1519
a(I2598
F0.089533
tp1520
a(I3348
F0.0895
tp1521
a(I2969
F0.089222
tp1522
aa(lp1523
(I2332
F0.103735
tp1524
aa(lp1525
(I2945
F0.3437
tp1526
a(I3004
F0.343687
tp1527
a(I3250
F0.343433
tp1528
a(I2949
F0.342412
tp1529
a(I3335
F0.341998
tp1530
a(I3108
F0.341638
tp1531
a(I3045
F0.340776
tp1532
a(I3296
F0.339679
tp1533
a(I3347
F0.339348
tp1534
a(I2960
F0.339213
tp1535
a(I3353
F0.337256
tp1536
a(I2867
F0.337051
tp1537
a(I3184
F0.336233
tp1538
a(I3256
F0.334919
tp1539
a(I3336
F0.33427
tp1540
a(I2866
F0.33374
tp1541
a(I2900
F0.333512
tp1542
a(I3388
F0.333269
tp1543
a(I3220
F0.332298
tp1544
a(I2977
F0.331255
tp1545
a(I3145
F0.329773
tp1546
a(I2815
F0.329503
tp1547
a(I3077
F0.329165
tp1548
a(I3380
F0.328755
tp1549
a(I3170
F0.328723
tp1550
a(I2913
F0.328319
tp1551
a(I3083
F0.326274
tp1552
a(I2957
F0.326019
tp1553
a(I2788
F0.325627
tp1554
a(I2774
F0.324274
tp1555
a(I2846
F0.324082
tp1556
a(I3321
F0.323547
tp1557
a(I3398
F0.321617
tp1558
a(I3360
F0.320043
tp1559
a(I3290
F0.319867
tp1560
a(I3207
F0.319401
tp1561
a(I2967
F0.318761
tp1562
a(I2767
F0.318094
tp1563
a(I3070
F0.317093
tp1564
a(I3245
F0.317081
tp1565
a(I3100
F0.316562
tp1566
a(I3393
F0.315746
tp1567
a(I2786
F0.315628
tp1568
a(I3350
F0.315475
tp1569
a(I2853
F0.314552
tp1570
a(I2840
F0.312524
tp1571
a(I3392
F0.311584
tp1572
a(I3254
F0.309815
tp1573
a(I2766
F0.309415
tp1574
a(I2935
F0.30737
tp1575
a(I2797
F0.307314
tp1576
a(I2974
F0.30597
tp1577
a(I3399
F0.305389
tp1578
a(I3198
F0.305112
tp1579
a(I3144
F0.304572
tp1580
a(I3284
F0.302465
tp1581
a(I3235
F0.30161
tp1582
a(I2861
F0.301522
tp1583
a(I2778
F0.301422
tp1584
a(I3330
F0.300934
tp1585
a(I2940
F0.299898
tp1586
a(I3340
F0.297622
tp1587
a(I2998
F0.29453
tp1588
a(I2839
F0.293879
tp1589
a(I2808
F0.292972
tp1590
a(I3185
F0.289617
tp1591
a(I3285
F0.289561
tp1592
a(I2831
F0.289438
tp1593
a(I3397
F0.28814
tp1594
a(I2773
F0.287968
tp1595
a(I3384
F0.286302
tp1596
a(I2982
F0.285203
tp1597
a(I3332
F0.284263
tp1598
a(I3390
F0.283973
tp1599
a(I3309
F0.28324
tp1600
a(I2862
F0.28269
tp1601
a(I3359
F0.282618
tp1602
a(I2906
F0.28259
tp1603
a(I3051
F0.282213
tp1604
a(I3271
F0.280137
tp1605
a(I3137
F0.279575
tp1606
a(I3153
F0.279001
tp1607
a(I2811
F0.278911
tp1608
a(I2950
F0.275147
tp1609
a(I3303
F0.274757
tp1610
a(I3081
F0.274557
tp1611
a(I3036
F0.274167
tp1612
a(I3377
F0.270459
tp1613
a(I2879
F0.270349
tp1614
a(I2987
F0.270123
tp1615
a(I3358
F0.26984
tp1616
a(I2868
F0.268019
tp1617
a(I2820
F0.266649
tp1618
a(I2872
F0.266554
tp1619
a(I2939
F0.266279
tp1620
a(I2822
F0.266127
tp1621
a(I3297
F0.260096
tp1622
a(I3148
F0.259455
tp1623
a(I3025
F0.25861
tp1624
a(I3295
F0.254899
tp1625
a(I2834
F0.2487
tp1626
a(I3140
F0.247932
tp1627
a(I2876
F0.247468
tp1628
a(I3329
F0.247249
tp1629
a(I3171
F0.246571
tp1630
a(I3311
F0.244856
tp1631
a(I3274
F0.243525
tp1632
a(I3015
F0.242868
tp1633
a(I3189
F0.239166
tp1634
a(I3020
F0.237556
tp1635
a(I3066
F0.237488
tp1636
a(I2918
F0.237312
tp1637
a(I2880
F0.237245
tp1638
a(I3105
F0.236938
tp1639
a(I2920
F0.235032
tp1640
a(I2817
F0.234088
tp1641
a(I2875
F0.233956
tp1642
a(I3233
F0.232931
tp1643
a(I2810
F0.23219
tp1644
a(I2832
F0.224984
tp1645
a(I2803
F0.223845
tp1646
a(I2837
F0.21939
tp1647
a(I3299
F0.218971
tp1648
a(I2963
F0.218108
tp1649
a(I3242
F0.212587
tp1650
a(I3247
F0.209891
tp1651
a(I2871
F0.209104
tp1652
a(I3057
F0.205831
tp1653
a(I3009
F0.202378
tp1654
a(I3283
F0.199295
tp1655
a(I3208
F0.198334
tp1656
a(I3262
F0.19778
tp1657
a(I3017
F0.196938
tp1658
a(I3058
F0.196764
tp1659
a(I2760
F0.195628
tp1660
a(I2941
F0.195244
tp1661
a(I3292
F0.194145
tp1662
a(I2889
F0.192022
tp1663
a(I2804
F0.191435
tp1664
a(I2756
F0.190173
tp1665
a(I2829
F0.186336
tp1666
a(I2865
F0.182068
tp1667
a(I2768
F0.180584
tp1668
a(I3178
F0.180481
tp1669
a(I3166
F0.179209
tp1670
a(I2958
F0.178657
tp1671
a(I3056
F0.177978
tp1672
a(I3211
F0.177269
tp1673
a(I3264
F0.174737
tp1674
a(I2739
F0.173971
tp1675
a(I3027
F0.173771
tp1676
a(I2946
F0.173201
tp1677
a(I2870
F0.1732
tp1678
a(I2863
F0.173176
tp1679
a(I3078
F0.170578
tp1680
a(I3127
F0.170068
tp1681
a(I3228
F0.169783
tp1682
a(I2779
F0.169506
tp1683
a(I2966
F0.16942
tp1684
a(I2721
F0.169375
tp1685
a(I3273
F0.16748
tp1686
a(I2985
F0.167396
tp1687
a(I2901
F0.167055
tp1688
a(I2857
F0.165968
tp1689
a(I3272
F0.164543
tp1690
a(I3224
F0.164008
tp1691
a(I2741
F0.161672
tp1692
a(I3214
F0.161508
tp1693
a(I2869
F0.161153
tp1694
a(I2979
F0.161074
tp1695
a(I2719
F0.159605
tp1696
a(I3159
F0.157945
tp1697
a(I2984
F0.157837
tp1698
a(I2695
F0.154885
tp1699
a(I3001
F0.152451
tp1700
a(I3277
F0.151341
tp1701
a(I2807
F0.151217
tp1702
a(I3072
F0.150746
tp1703
a(I3041
F0.147521
tp1704
a(I3261
F0.146557
tp1705
a(I3301
F0.146422
tp1706
a(I2775
F0.145063
tp1707
a(I3136
F0.144765
tp1708
a(I3298
F0.140697
tp1709
a(I2995
F0.139922
tp1710
a(I2708
F0.138756
tp1711
a(I2830
F0.137428
tp1712
a(I3196
F0.136065
tp1713
a(I3288
F0.135876
tp1714
a(I2745
F0.135562
tp1715
a(I3050
F0.135358
tp1716
a(I3062
F0.135193
tp1717
a(I2737
F0.134946
tp1718
a(I3237
F0.133689
tp1719
a(I3304
F0.133564
tp1720
a(I3269
F0.133182
tp1721
a(I2893
F0.132551
tp1722
a(I2926
F0.132058
tp1723
a(I3268
F0.131487
tp1724
a(I3333
F0.131234
tp1725
a(I2953
F0.131159
tp1726
a(I3075
F0.131024
tp1727
a(I2740
F0.130525
tp1728
a(I2669
F0.129816
tp1729
a(I2798
F0.12936
tp1730
a(I2675
F0.128101
tp1731
a(I2691
F0.126827
tp1732
a(I3226
F0.126703
tp1733
a(I2964
F0.125461
tp1734
a(I3162
F0.125198
tp1735
a(I2799
F0.124804
tp1736
a(I3325
F0.124756
tp1737
a(I3345
F0.124747
tp1738
a(I3373
F0.123261
tp1739
a(I2854
F0.123145
tp1740
a(I3305
F0.123018
tp1741
a(I3323
F0.122972
tp1742
a(I3052
F0.122932
tp1743
a(I3367
F0.122774
tp1744
a(I3084
F0.122028
tp1745
a(I2724
F0.121811
tp1746
a(I2673
F0.121623
tp1747
a(I3238
F0.119403
tp1748
a(I2643
F0.118915
tp1749
a(I2758
F0.117439
tp1750
a(I2605
F0.117269
tp1751
a(I2606
F0.117194
tp1752
a(I2881
F0.116445
tp1753
a(I2722
F0.116424
tp1754
a(I3382
F0.116351
tp1755
a(I3212
F0.115895
tp1756
a(I2784
F0.115543
tp1757
a(I3337
F0.11494
tp1758
a(I3103
F0.114857
tp1759
a(I2975
F0.114286
tp1760
a(I3386
F0.113532
tp1761
a(I2705
F0.112982
tp1762
a(I3260
F0.112757
tp1763
a(I3394
F0.112731
tp1764
a(I2848
F0.112688
tp1765
a(I3047
F0.112613
tp1766
a(I3243
F0.112549
tp1767
a(I2751
F0.112469
tp1768
a(I3352
F0.112216
tp1769
a(I2851
F0.111532
tp1770
a(I3124
F0.110856
tp1771
a(I3095
F0.110783
tp1772
a(I2626
F0.110681
tp1773
a(I2664
F0.109826
tp1774
a(I3369
F0.108295
tp1775
a(I2567
F0.107813
tp1776
a(I3396
F0.107786
tp1777
a(I2575
F0.107712
tp1778
a(I2816
F0.107536
tp1779
a(I3349
F0.107206
tp1780
a(I2933
F0.10651
tp1781
a(I2649
F0.106105
tp1782
a(I3306
F0.105679
tp1783
a(I2671
F0.105435
tp1784
a(I2533
F0.105422
tp1785
a(I2572
F0.105384
tp1786
a(I2526
F0.105375
tp1787
a(I2456
F0.105038
tp1788
a(I3389
F0.104668
tp1789
a(I2446
F0.104643
tp1790
a(I3161
F0.104594
tp1791
a(I2703
F0.104366
tp1792
a(I3190
F0.10393
tp1793
aa(lp1794
a(lp1795
(I3202
F0.347187
tp1796
a(I3172
F0.347152
tp1797
a(I3294
F0.346853
tp1798
aa(lp1799
a(lp1800
a(lp1801
(I1296
F0.050667
tp1802
a(I1531
F0.05059
tp1803
a(I3234
F0.050076
tp1804
a(I1431
F0.050057
tp1805
a(I1752
F0.049779
tp1806
a(I1512
F0.049707
tp1807
a(I584
F0.049654
tp1808
a(I815
F0.049535
tp1809
a(I1107
F0.049142
tp1810
a(I560
F0.049078
tp1811
a(I2800
F0.049074
tp1812
a(I3002
F0.049023
tp1813
a(I957
F0.048882
tp1814
a(I1636
F0.048615
tp1815
a(I2890
F0.048561
tp1816
a(I2993
F0.048407
tp1817
a(I1320
F0.048313
tp1818
a(I2959
F0.048255
tp1819
a(I2340
F0.048136
tp1820
a(I575
F0.047848
tp1821
a(I3179
F0.047801
tp1822
a(I2574
F0.047758
tp1823
a(I1827
F0.047644
tp1824
a(I3240
F0.047498
tp1825
a(I3085
F0.047372
tp1826
a(I3043
F0.047358
tp1827
a(I3174
F0.047128
tp1828
a(I2781
F0.046962
tp1829
a(I1530
F0.046816
tp1830
a(I2560
F0.046508
tp1831
a(I3046
F0.046464
tp1832
a(I929
F0.046301
tp1833
a(I2699
F0.046255
tp1834
a(I459
F0.0461
tp1835
a(I1578
F0.046007
tp1836
a(I2634
F0.045998
tp1837
a(I354
F0.045885
tp1838
a(I3282
F0.045719
tp1839
a(I2701
F0.045564
tp1840
a(I3229
F0.045524
tp1841
a(I1490
F0.045351
tp1842
a(I1927
F0.045309
tp1843
a(I1550
F0.045272
tp1844
a(I1034
F0.045108
tp1845
a(I1561
F0.045084
tp1846
a(I816
F0.044791
tp1847
a(I338
F0.044738
tp1848
a(I2047
F0.04466
tp1849
a(I481
F0.04447
tp1850
a(I2932
F0.044339
tp1851
a(I3143
F0.04428
tp1852
a(I1140
F0.044269
tp1853
a(I686
F0.043799
tp1854
a(I3141
F0.043729
tp1855
a(I888
F0.04353
tp1856
a(I1472
F0.043021
tp1857
a(I2132
F0.042978
tp1858
a(I638
F0.042808
tp1859
a(I1593
F0.042752
tp1860
a(I2203
F0.042703
tp1861
a(I2406
F0.042555
tp1862
a(I1560
F0.042399
tp1863
a(I1329
F0.042187
tp1864
a(I1565
F0.041849
tp1865
a(I345
F0.041794
tp1866
a(I515
F0.041651
tp1867
a(I2601
F0.041521
tp1868
a(I571
F0.041214
tp1869
a(I1394
F0.040726
tp1870
a(I2330
F0.040708
tp1871
a(I1786
F0.04033
tp1872
a(I1122
F0.040112
tp1873
a(I928
F0.03995
tp1874
a(I2763
F0.039741
tp1875
a(I1207
F0.039603
tp1876
a(I3005
F0.039601
tp1877
a(I3101
F0.039574
tp1878
a(I2898
F0.039479
tp1879
a(I2183
F0.039213
tp1880
a(I337
F0.03894
tp1881
a(I452
F0.038862
tp1882
a(I355
F0.038728
tp1883
a(I1590
F0.038696
tp1884
a(I3093
F0.038646
tp1885
a(I1676
F0.038526
tp1886
a(I1692
F0.038454
tp1887
a(I3223
F0.038423
tp1888
a(I2382
F0.038266
tp1889
a(I3111
F0.038182
tp1890
a(I3263
F0.037981
tp1891
a(I1426
F0.037737
tp1892
a(I2036
F0.037594
tp1893
a(I822
F0.03758
tp1894
a(I2658
F0.037513
tp1895
a(I2035
F0.037349
tp1896
a(I3338
F0.037302
tp1897
a(I830
F0.037209
tp1898
a(I3225
F0.037078
tp1899
a(I1804
F0.036881
tp1900
a(I2497
F0.03668
tp1901
a(I1598
F0.036642
tp1902
a(I394
F0.036558
tp1903
a(I1398
F0.036425
tp1904
a(I705
F0.036409
tp1905
a(I712
F0.036355
tp1906
a(I2931
F0.036238
tp1907
a(I351
F0.036231
tp1908
a(I365
F0.035972
tp1909
a(I3289
F0.035929
tp1910
a(I1745
F0.035892
tp1911
a(I1231
F0.03554
tp1912
a(I1467
F0.035519
tp1913
a(I3317
F0.035421
tp1914
a(I3307
F0.035415
tp1915
a(I2992
F0.035411
tp1916
a(I3205
F0.035301
tp1917
a(I2709
F0.035193
tp1918
a(I1015
F0.035096
tp1919
a(I1035
F0.034902
tp1920
a(I2782
F0.034877
tp1921
a(I2827
F0.034803
tp1922
a(I1650
F0.034737
tp1923
a(I1526
F0.034682
tp1924
a(I407
F0.034382
tp1925
a(I3094
F0.03434
tp1926
a(I498
F0.034252
tp1927
a(I3241
F0.03423
tp1928
a(I3157
F0.034204
tp1929
a(I1618
F0.034153
tp1930
a(I3316
F0.034013
tp1931
a(I1584
F0.03398
tp1932
a(I2917
F0.033972
tp1933
a(I2536
F0.03362
tp1934
a(I1700
F0.033519
tp1935
a(I873
F0.033356
tp1936
a(I2651
F0.033202
tp1937
a(I1343
F0.033061
tp1938
a(I3364
F0.033017
tp1939
a(I2508
F0.032908
tp1940
a(I2163
F0.032855
tp1941
a(I2990
F0.032851
tp1942
a(I3313
F0.032794
tp1943
a(I1564
F0.03278
tp1944
a(I2680
F0.032596
tp1945
a(I3246
F0.032549
tp1946
a(I1387
F0.032507
tp1947
a(I3130
F0.032501
tp1948
a(I1533
F0.032461
tp1949
a(I3361
F0.032361
tp1950
a(I608
F0.032334
tp1951
a(I2149
F0.032295
tp1952
a(I1851
F0.032092
tp1953
a(I1722
F0.032062
tp1954
aa(lp1955
(I2736
F0.065927
tp1956
a(I533
F0.065872
tp1957
a(I1055
F0.065852
tp1958
a(I788
F0.065699
tp1959
a(I548
F0.065606
tp1960
a(I3206
F0.065568
tp1961
a(I1161
F0.06513
tp1962
a(I748
F0.065014
tp1963
a(I1702
F0.064805
tp1964
a(I1138
F0.064752
tp1965
a(I3123
F0.064733
tp1966
a(I2824
F0.064685
tp1967
a(I1542
F0.064253
tp1968
a(I2652
F0.064235
tp1969
a(I485
F0.064083
tp1970
a(I2972
F0.063685
tp1971
a(I894
F0.063345
tp1972
a(I1477
F0.063321
tp1973
a(I2552
F0.063227
tp1974
a(I3209
F0.063019
tp1975
a(I2927
F0.062806
tp1976
a(I582
F0.062708
tp1977
a(I436
F0.062678
tp1978
a(I489
F0.062577
tp1979
a(I1265
F0.062413
tp1980
a(I1372
F0.062246
tp1981
a(I626
F0.062243
tp1982
a(I510
F0.062219
tp1983
a(I1082
F0.062062
tp1984
a(I1625
F0.062014
tp1985
a(I2463
F0.062002
tp1986
a(I3018
F0.06177
tp1987
a(I1248
F0.061766
tp1988
a(I968
F0.061651
tp1989
a(I2122
F0.0616
tp1990
a(I3003
F0.0615
tp1991
a(I3200
F0.061422
tp1992
a(I479
F0.061268
tp1993
a(I434
F0.061256
tp1994
a(I2235
F0.061187
tp1995
a(I539
F0.061162
tp1996
a(I2679
F0.061148
tp1997
a(I684
F0.061106
tp1998
a(I517
F0.06094
tp1999
a(I1017
F0.060693
tp2000
a(I2475
F0.060552
tp2001
a(I3068
F0.060264
tp2002
a(I2306
F0.060253
tp2003
a(I1897
F0.059908
tp2004
a(I1051
F0.059817
tp2005
a(I2546
F0.059803
tp2006
a(I3210
F0.05968
tp2007
a(I2905
F0.059647
tp2008
a(I3154
F0.059567
tp2009
a(I2742
F0.059461
tp2010
a(I2310
F0.05934
tp2011
a(I770
F0.059276
tp2012
a(I392
F0.059098
tp2013
a(I2847
F0.058958
tp2014
a(I652
F0.058734
tp2015
a(I2769
F0.058459
tp2016
a(I399
F0.058411
tp2017
a(I3216
F0.058321
tp2018
a(I617
F0.058297
tp2019
a(I3197
F0.058272
tp2020
a(I528
F0.058136
tp2021
a(I3201
F0.058083
tp2022
a(I1385
F0.057638
tp2023
a(I1061
F0.057401
tp2024
a(I2785
F0.057351
tp2025
a(I1308
F0.057244
tp2026
a(I1493
F0.057163
tp2027
a(I2610
F0.056986
tp2028
a(I1504
F0.05683
tp2029
a(I1868
F0.056532
tp2030
a(I932
F0.056033
tp2031
a(I2997
F0.055913
tp2032
a(I2529
F0.055424
tp2033
a(I364
F0.055399
tp2034
a(I1121
F0.055336
tp2035
a(I3195
F0.055284
tp2036
a(I2912
F0.055261
tp2037
a(I480
F0.055248
tp2038
a(I449
F0.055223
tp2039
a(I759
F0.055196
tp2040
a(I1634
F0.05504
tp2041
a(I2825
F0.054912
tp2042
a(I1451
F0.054839
tp2043
a(I1303
F0.054828
tp2044
a(I2833
F0.054799
tp2045
a(I415
F0.054596
tp2046
a(I2661
F0.054592
tp2047
a(I808
F0.05449
tp2048
a(I2426
F0.054413
tp2049
a(I1045
F0.05416
tp2050
a(I502
F0.054031
tp2051
a(I2888
F0.053834
tp2052
a(I1482
F0.053761
tp2053
a(I532
F0.0536
tp2054
a(I900
F0.053504
tp2055
a(I3012
F0.053349
tp2056
a(I714
F0.053312
tp2057
a(I1273
F0.053299
tp2058
a(I464
F0.053202
tp2059
a(I3089
F0.053069
tp2060
a(I1246
F0.052659
tp2061
a(I450
F0.05251
tp2062
a(I2331
F0.052319
tp2063
a(I2265
F0.05208
tp2064
a(I1148
F0.051883
tp2065
a(I2023
F0.05175
tp2066
a(I3183
F0.051627
tp2067
a(I438
F0.051537
tp2068
a(I2408
F0.051256
tp2069
a(I2450
F0.051174
tp2070
a(I2583
F0.051034
tp2071
a(I2088
F0.050878
tp2072
aa(lp2073
a(lp2074
a(lp2075
a(lp2076
(I785
F0.068411
tp2077
a(I909
F0.068065
tp2078
a(I673
F0.067951
tp2079
aa(lp2080
(I1014
F0.264924
tp2081
a(I954
F0.263946
tp2082
a(I1026
F0.262035
tp2083
a(I733
F0.261997
tp2084
a(I824
F0.261429
tp2085
a(I1240
F0.261255
tp2086
a(I1337
F0.259648
tp2087
a(I1242
F0.259499
tp2088
a(I778
F0.259227
tp2089
a(I665
F0.258265
tp2090
a(I985
F0.257855
tp2091
a(I1408
F0.255244
tp2092
a(I777
F0.254941
tp2093
a(I635
F0.254189
tp2094
a(I1159
F0.253729
tp2095
a(I897
F0.253434
tp2096
a(I668
F0.253432
tp2097
a(I1315
F0.252905
tp2098
a(I910
F0.252853
tp2099
a(I1469
F0.25282
tp2100
a(I1056
F0.249189
tp2101
a(I1132
F0.249074
tp2102
a(I1518
F0.248563
tp2103
a(I634
F0.248303
tp2104
a(I1438
F0.247272
tp2105
a(I838
F0.247226
tp2106
a(I534
F0.246911
tp2107
a(I602
F0.246065
tp2108
a(I1328
F0.244753
tp2109
a(I700
F0.244502
tp2110
a(I800
F0.244272
tp2111
a(I735
F0.243184
tp2112
a(I997
F0.242203
tp2113
a(I1032
F0.242137
tp2114
a(I483
F0.240958
tp2115
a(I1364
F0.240262
tp2116
a(I1528
F0.239903
tp2117
a(I1544
F0.23861
tp2118
a(I1098
F0.236791
tp2119
a(I493
F0.236442
tp2120
a(I637
F0.236327
tp2121
a(I1569
F0.233772
tp2122
a(I432
F0.233411
tp2123
a(I949
F0.233252
tp2124
a(I1304
F0.232417
tp2125
a(I1479
F0.232171
tp2126
a(I787
F0.229362
tp2127
a(I1277
F0.228789
tp2128
a(I1127
F0.22852
tp2129
a(I667
F0.228057
tp2130
a(I1462
F0.225176
tp2131
a(I465
F0.222737
tp2132
a(I914
F0.22272
tp2133
a(I662
F0.221534
tp2134
a(I1376
F0.221423
tp2135
a(I1377
F0.221391
tp2136
a(I1532
F0.220949
tp2137
a(I529
F0.219716
tp2138
a(I1229
F0.219471
tp2139
a(I1510
F0.219186
tp2140
a(I883
F0.217416
tp2141
a(I632
F0.215327
tp2142
a(I1335
F0.213794
tp2143
a(I410
F0.212601
tp2144
a(I981
F0.21246
tp2145
a(I447
F0.210733
tp2146
a(I385
F0.210432
tp2147
a(I435
F0.210053
tp2148
a(I930
F0.20724
tp2149
a(I1136
F0.207059
tp2150
a(I1488
F0.204812
tp2151
a(I550
F0.203658
tp2152
a(I1183
F0.202971
tp2153
a(I523
F0.199554
tp2154
a(I1256
F0.199487
tp2155
a(I1126
F0.199429
tp2156
a(I1029
F0.197995
tp2157
a(I659
F0.197713
tp2158
a(I1433
F0.197402
tp2159
a(I1318
F0.19725
tp2160
a(I1466
F0.197079
tp2161
a(I417
F0.197066
tp2162
a(I776
F0.196127
tp2163
a(I457
F0.194733
tp2164
a(I852
F0.194578
tp2165
a(I1352
F0.193248
tp2166
a(I1475
F0.192297
tp2167
a(I1081
F0.191634
tp2168
a(I1434
F0.190386
tp2169
a(I437
F0.190099
tp2170
a(I1173
F0.18944
tp2171
a(I752
F0.188728
tp2172
a(I595
F0.187433
tp2173
a(I1345
F0.186855
tp2174
a(I862
F0.183894
tp2175
a(I972
F0.183258
tp2176
a(I1135
F0.180279
tp2177
a(I466
F0.179617
tp2178
a(I1114
F0.178425
tp2179
a(I938
F0.176635
tp2180
a(I1164
F0.174922
tp2181
a(I544
F0.172375
tp2182
a(I1057
F0.170421
tp2183
a(I1379
F0.169006
tp2184
a(I478
F0.166182
tp2185
a(I818
F0.166017
tp2186
a(I431
F0.16433
tp2187
a(I420
F0.164212
tp2188
a(I1397
F0.164109
tp2189
a(I641
F0.163694
tp2190
a(I552
F0.162629
tp2191
a(I448
F0.161945
tp2192
a(I1260
F0.161862
tp2193
a(I646
F0.161389
tp2194
a(I973
F0.161336
tp2195
a(I563
F0.160088
tp2196
a(I1105
F0.158126
tp2197
a(I1326
F0.157844
tp2198
a(I842
F0.153716
tp2199
a(I1223
F0.153504
tp2200
a(I847
F0.149695
tp2201
a(I979
F0.148655
tp2202
a(I1324
F0.147192
tp2203
a(I1117
F0.146296
tp2204
a(I1059
F0.14494
tp2205
a(I1258
F0.142805
tp2206
a(I1380
F0.141913
tp2207
a(I446
F0.1399
tp2208
a(I1371
F0.13963
tp2209
a(I501
F0.137618
tp2210
a(I443
F0.136613
tp2211
a(I1145
F0.134723
tp2212
a(I640
F0.133099
tp2213
a(I508
F0.132894
tp2214
a(I757
F0.132524
tp2215
a(I727
F0.131653
tp2216
a(I1144
F0.131191
tp2217
a(I982
F0.130686
tp2218
a(I658
F0.12981
tp2219
a(I1351
F0.128303
tp2220
a(I1276
F0.127045
tp2221
a(I1085
F0.125834
tp2222
a(I471
F0.124547
tp2223
a(I850
F0.117756
tp2224
a(I1346
F0.116229
tp2225
a(I607
F0.11403
tp2226
a(I1116
F0.113379
tp2227
a(I1383
F0.111231
tp2228
a(I679
F0.106887
tp2229
a(I1321
F0.105742
tp2230
a(I1413
F0.103826
tp2231
a(I1404
F0.097727
tp2232
a(I1245
F0.096529
tp2233
a(I898
F0.096418
tp2234
a(I1401
F0.09578
tp2235
a(I497
F0.095641
tp2236
a(I1341
F0.094902
tp2237
a(I486
F0.094281
tp2238
a(I1005
F0.093567
tp2239
a(I580
F0.092721
tp2240
a(I817
F0.091554
tp2241
a(I567
F0.091458
tp2242
a(I531
F0.090697
tp2243
a(I725
F0.090451
tp2244
a(I1442
F0.089421
tp2245
a(I521
F0.089362
tp2246
a(I505
F0.085181
tp2247
a(I1016
F0.084399
tp2248
a(I663
F0.084195
tp2249
a(I745
F0.082731
tp2250
a(I590
F0.081041
tp2251
a(I851
F0.080586
tp2252
a(I967
F0.07855
tp2253
a(I1154
F0.078224
tp2254
a(I545
F0.077766
tp2255
a(I1179
F0.076938
tp2256
a(I1418
F0.076448
tp2257
a(I551
F0.074695
tp2258
a(I754
F0.074305
tp2259
a(I1334
F0.073096
tp2260
a(I522
F0.072949
tp2261
a(I628
F0.072888
tp2262
a(I1067
F0.071474
tp2263
a(I1407
F0.071404
tp2264
a(I945
F0.071237
tp2265
a(I1396
F0.070242
tp2266
a(I703
F0.070123
tp2267
a(I1323
F0.069976
tp2268
a(I525
F0.069665
tp2269
a(I574
F0.069335
tp2270
a(I819
F0.068697
tp2271
a(I1137
F0.068198
tp2272
a(I721
F0.066679
tp2273
a(I943
F0.066557
tp2274
aa(lp2275
a(lp2276
(I1177
F0.266622
tp2277
aa(lp2278
(I1282
F0.070913
tp2279
a(I2297
F0.070808
tp2280
a(I2731
F0.070697
tp2281
a(I3176
F0.070056
tp2282
a(I633
F0.070007
tp2283
a(I3037
F0.069954
tp2284
a(I2613
F0.069941
tp2285
a(I1638
F0.069803
tp2286
a(I1810
F0.069794
tp2287
a(I2240
F0.069622
tp2288
a(I1209
F0.06955
tp2289
a(I3236
F0.069142
tp2290
a(I2587
F0.069098
tp2291
a(I796
F0.068892
tp2292
a(I2390
F0.068784
tp2293
a(I2399
F0.068602
tp2294
a(I3067
F0.06856
tp2295
a(I2852
F0.06846
tp2296
a(I1113
F0.068457
tp2297
a(I541
F0.068184
tp2298
a(I1339
F0.06814
tp2299
a(I604
F0.067972
tp2300
a(I1429
F0.067926
tp2301
a(I565
F0.067514
tp2302
a(I2229
F0.067473
tp2303
a(I2922
F0.067264
tp2304
a(I952
F0.067241
tp2305
a(I2700
F0.06723
tp2306
a(I623
F0.06722
tp2307
a(I472
F0.067192
tp2308
a(I1841
F0.067141
tp2309
a(I2516
F0.066842
tp2310
a(I1920
F0.066791
tp2311
a(I2298
F0.066718
tp2312
a(I2928
F0.066716
tp2313
a(I3150
F0.066704
tp2314
a(I944
F0.066667
tp2315
a(I3258
F0.066411
tp2316
a(I701
F0.066108
tp2317
aa(lp2318
a(lp2319
(I1603
F0.0736
tp2320
a(I1903
F0.073307
tp2321
a(I992
F0.073187
tp2322
a(I3265
F0.072865
tp2323
a(I2303
F0.072678
tp2324
a(I678
F0.072676
tp2325
a(I2662
F0.072602
tp2326
a(I2994
F0.07212
tp2327
a(I2511
F0.072065
tp2328
a(I2622
F0.072034
tp2329
a(I648
F0.071656
tp2330
a(I2377
F0.07155
tp2331
a(I3280
F0.071431
tp2332
a(I3119
F0.071318
tp2333
a(I3030
F0.071275
tp2334
a(I2761
F0.071228
tp2335
a(I1790
F0.071067
tp2336
aa(lp2337
(I1801
F0.08499
tp2338
a(I2677
F0.084929
tp2339
a(I2448
F0.084908
tp2340
a(I2484
F0.084749
tp2341
a(I2159
F0.084669
tp2342
a(I2628
F0.084579
tp2343
a(I2690
F0.084472
tp2344
a(I2539
F0.08447
tp2345
a(I3193
F0.084351
tp2346
a(I3035
F0.084311
tp2347
a(I2641
F0.084127
tp2348
a(I2368
F0.08402
tp2349
a(I572
F0.083947
tp2350
a(I2795
F0.083879
tp2351
a(I2836
F0.08386
tp2352
a(I1289
F0.083737
tp2353
a(I1765
F0.083715
tp2354
a(I1091
F0.083673
tp2355
a(I1850
F0.083655
tp2356
a(I2753
F0.083624
tp2357
a(I2217
F0.083491
tp2358
a(I526
F0.083484
tp2359
a(I1939
F0.082957
tp2360
a(I2687
F0.082912
tp2361
a(I3074
F0.082687
tp2362
a(I329
F0.082663
tp2363
a(I456
F0.082559
tp2364
a(I328
F0.082512
tp2365
a(I2547
F0.082472
tp2366
a(I2976
F0.082395
tp2367
a(I2523
F0.082375
tp2368
a(I2550
F0.082344
tp2369
a(I2250
F0.082238
tp2370
a(I1190
F0.082194
tp2371
a(I2189
F0.082005
tp2372
a(I718
F0.081952
tp2373
a(I2452
F0.08194
tp2374
a(I1937
F0.081877
tp2375
a(I2367
F0.081802
tp2376
a(I592
F0.081794
tp2377
a(I2910
F0.081794
tp2378
a(I2524
F0.081583
tp2379
a(I2826
F0.081438
tp2380
a(I1342
F0.081367
tp2381
a(I2542
F0.081299
tp2382
a(I2449
F0.080847
tp2383
a(I1824
F0.080816
tp2384
a(I2629
F0.080682
tp2385
a(I896
F0.080576
tp2386
a(I2538
F0.080499
tp2387
a(I2859
F0.080255
tp2388
a(I2668
F0.080214
tp2389
a(I2772
F0.079943
tp2390
a(I2902
F0.0799
tp2391
a(I2373
F0.079712
tp2392
a(I2480
F0.079494
tp2393
a(I1311
F0.079464
tp2394
a(I2069
F0.079359
tp2395
a(I3231
F0.079265
tp2396
a(I2348
F0.079248
tp2397
a(I984
F0.079113
tp2398
a(I2738
F0.078978
tp2399
a(I1581
F0.078962
tp2400
a(I2535
F0.078785
tp2401
a(I2098
F0.07876
tp2402
a(I2188
F0.078482
tp2403
a(I1069
F0.078406
tp2404
a(I2415
F0.078278
tp2405
a(I3215
F0.078267
tp2406
a(I2418
F0.078114
tp2407
a(I1076
F0.07801
tp2408
a(I1400
F0.0776
tp2409
a(I1203
F0.077569
tp2410
a(I1664
F0.076966
tp2411
a(I3000
F0.076879
tp2412
a(I989
F0.076802
tp2413
a(I619
F0.076613
tp2414
a(I687
F0.076539
tp2415
a(I477
F0.076511
tp2416
a(I922
F0.076462
tp2417
a(I2314
F0.07618
tp2418
a(I730
F0.076
tp2419
a(I1402
F0.075937
tp2420
a(I2398
F0.075918
tp2421
a(I1293
F0.075375
tp2422
a(I848
F0.075217
tp2423
a(I1966
F0.075165
tp2424
a(I772
F0.074955
tp2425
a(I2056
F0.074881
tp2426
a(I1557
F0.074743
tp2427
a(I2154
F0.074608
tp2428
a(I3151
F0.074514
tp2429
a(I3049
F0.074507
tp2430
a(I3086
F0.074431
tp2431
a(I2841
F0.074283
tp2432
a(I2892
F0.074229
tp2433
a(I3102
F0.074052
tp2434
a(I2487
F0.073761
tp2435
a(I723
F0.073728
tp2436
a(I1444
F0.073726
tp2437
aa(lp2438
(I127
F0.211901
tp2439
a(I24
F0.21188
tp2440
a(I2131
F0.211651
tp2441
a(I1297
F0.211551
tp2442
a(I1731
F0.211397
tp2443
a(I1317
F0.211224
tp2444
a(I116
F0.210992
tp2445
a(I469
F0.210933
tp2446
a(I143
F0.210902
tp2447
a(I89
F0.210821
tp2448
a(I131
F0.210818
tp2449
a(I145
F0.210722
tp2450
a(I164
F0.210722
tp2451
a(I16
F0.210049
tp2452
a(I1723
F0.209758
tp2453
a(I1749
F0.209487
tp2454
a(I111
F0.209472
tp2455
a(I359
F0.209413
tp2456
a(I490
F0.209369
tp2457
a(I1456
F0.209209
tp2458
a(I441
F0.208684
tp2459
a(I3
F0.208645
tp2460
a(I352
F0.208552
tp2461
a(I2172
F0.208476
tp2462
a(I1583
F0.208354
tp2463
a(I126
F0.2079
tp2464
a(I53
F0.207856
tp2465
a(I1677
F0.207496
tp2466
a(I689
F0.207234
tp2467
a(I342
F0.206932
tp2468
a(I855
F0.206897
tp2469
a(I2026
F0.206625
tp2470
a(I1621
F0.206312
tp2471
a(I371
F0.205773
tp2472
a(I1238
F0.205273
tp2473
a(I125
F0.205228
tp2474
a(I1864
F0.20505
tp2475
a(I348
F0.204611
tp2476
a(I1896
F0.204426
tp2477
a(I68
F0.204391
tp2478
a(I1363
F0.204059
tp2479
a(I366
F0.20383
tp2480
a(I175
F0.203807
tp2481
a(I1880
F0.203656
tp2482
a(I8
F0.203332
tp2483
a(I2193
F0.203177
tp2484
a(I1606
F0.203106
tp2485
a(I1267
F0.20306
tp2486
a(I98
F0.202876
tp2487
a(I383
F0.202413
tp2488
a(I70
F0.202396
tp2489
a(I740
F0.201954
tp2490
a(I2089
F0.201804
tp2491
a(I292
F0.201731
tp2492
a(I122
F0.201166
tp2493
a(I66
F0.200696
tp2494
a(I1761
F0.200284
tp2495
a(I310
F0.19975
tp2496
a(I104
F0.199654
tp2497
a(I5
F0.19952
tp2498
a(I1525
F0.19948
tp2499
a(I298
F0.199132
tp2500
a(I1503
F0.198682
tp2501
a(I1884
F0.198599
tp2502
a(I1611
F0.198426
tp2503
a(I470
F0.198022
tp2504
a(I82
F0.197866
tp2505
a(I853
F0.197862
tp2506
a(I6
F0.197499
tp2507
a(I1719
F0.197314
tp2508
a(I2009
F0.197309
tp2509
a(I2011
F0.197223
tp2510
a(I149
F0.196981
tp2511
a(I14
F0.196404
tp2512
a(I1900
F0.195989
tp2513
a(I1778
F0.195746
tp2514
a(I91
F0.195697
tp2515
a(I2102
F0.195573
tp2516
a(I61
F0.195431
tp2517
a(I282
F0.195315
tp2518
a(I112
F0.195245
tp2519
a(I77
F0.195165
tp2520
a(I101
F0.193422
tp2521
a(I93
F0.192651
tp2522
a(I1182
F0.192335
tp2523
a(I236
F0.192323
tp2524
a(I1709
F0.192184
tp2525
a(I836
F0.192003
tp2526
a(I1278
F0.191868
tp2527
a(I2042
F0.191641
tp2528
a(I1954
F0.191463
tp2529
a(I2176
F0.191444
tp2530
a(I41
F0.191132
tp2531
a(I219
F0.191114
tp2532
a(I2226
F0.191021
tp2533
a(I1817
F0.19063
tp2534
a(I52
F0.190472
tp2535
a(I1802
F0.190402
tp2536
a(I12
F0.190016
tp2537
a(I2020
F0.189919
tp2538
a(I2124
F0.189897
tp2539
a(I2025
F0.189037
tp2540
a(I74
F0.188722
tp2541
a(I1998
F0.188564
tp2542
a(I275
F0.188452
tp2543
a(I429
F0.188403
tp2544
a(I58
F0.188073
tp2545
a(I2116
F0.187926
tp2546
a(I2048
F0.187123
tp2547
a(I7
F0.186849
tp2548
a(I1420
F0.186722
tp2549
a(I88
F0.186469
tp2550
a(I1668
F0.186401
tp2551
a(I361
F0.186381
tp2552
a(I67
F0.186213
tp2553
a(I87
F0.186086
tp2554
a(I35
F0.185785
tp2555
a(I20
F0.185698
tp2556
a(I33
F0.185495
tp2557
a(I1432
F0.185258
tp2558
a(I1109
F0.185204
tp2559
a(I2051
F0.184906
tp2560
a(I724
F0.184151
tp2561
a(I2222
F0.184068
tp2562
a(I17
F0.183213
tp2563
a(I2127
F0.181723
tp2564
a(I261
F0.181441
tp2565
a(I75
F0.179952
tp2566
a(I32
F0.179818
tp2567
a(I2016
F0.179718
tp2568
a(I1672
F0.179692
tp2569
a(I879
F0.179646
tp2570
a(I60
F0.179505
tp2571
a(I142
F0.179404
tp2572
a(I57
F0.178929
tp2573
a(I2090
F0.178769
tp2574
a(I2216
F0.178167
tp2575
a(I42
F0.178149
tp2576
a(I11
F0.177912
tp2577
a(I22
F0.177869
tp2578
a(I1452
F0.177544
tp2579
a(I2114
F0.177263
tp2580
a(I971
F0.177183
tp2581
a(I1994
F0.176569
tp2582
a(I26
F0.175188
tp2583
a(I586
F0.174656
tp2584
a(I2014
F0.174638
tp2585
a(I15
F0.174321
tp2586
a(I50
F0.174005
tp2587
a(I30
F0.173826
tp2588
a(I1450
F0.17381
tp2589
a(I2196
F0.173738
tp2590
a(I2171
F0.17333
tp2591
a(I34
F0.173295
tp2592
a(I1877
F0.173274
tp2593
a(I1811
F0.173169
tp2594
a(I72
F0.172767
tp2595
a(I323
F0.172251
tp2596
a(I1176
F0.171976
tp2597
a(I18
F0.171962
tp2598
a(I44
F0.171742
tp2599
a(I1830
F0.171045
tp2600
a(I200
F0.170263
tp2601
a(I771
F0.169805
tp2602
a(I21
F0.169716
tp2603
a(I31
F0.169038
tp2604
a(I19
F0.168765
tp2605
a(I1718
F0.16744
tp2606
a(I37
F0.167437
tp2607
a(I2257
F0.167153
tp2608
a(I2160
F0.166481
tp2609
a(I2150
F0.165961
tp2610
a(I2135
F0.165874
tp2611
a(I2064
F0.164923
tp2612
a(I1656
F0.164466
tp2613
a(I36
F0.164274
tp2614
a(I433
F0.164018
tp2615
a(I86
F0.163829
tp2616
a(I2079
F0.163325
tp2617
a(I27
F0.162863
tp2618
a(I133
F0.16282
tp2619
a(I1946
F0.162572
tp2620
a(I23
F0.162491
tp2621
a(I2251
F0.162181
tp2622
a(I73
F0.162105
tp2623
a(I45
F0.162029
tp2624
a(I2219
F0.162019
tp2625
a(I1910
F0.161584
tp2626
a(I919
F0.161538
tp2627
a(I1141
F0.161412
tp2628
a(I1268
F0.161411
tp2629
a(I39
F0.16075
tp2630
a(I2258
F0.160273
tp2631
a(I2044
F0.160139
tp2632
a(I43
F0.160003
tp2633
a(I734
F0.159783
tp2634
a(I1949
F0.159546
tp2635
a(I1534
F0.157872
tp2636
a(I268
F0.157004
tp2637
a(I55
F0.156783
tp2638
a(I130
F0.156297
tp2639
a(I230
F0.156177
tp2640
a(I736
F0.155762
tp2641
a(I1474
F0.155475
tp2642
a(I29
F0.154635
tp2643
a(I2288
F0.154336
tp2644
a(I40
F0.153638
tp2645
a(I2179
F0.153485
tp2646
a(I401
F0.153442
tp2647
a(I2228
F0.153059
tp2648
a(I46
F0.152171
tp2649
a(I49
F0.149679
tp2650
a(I2266
F0.149655
tp2651
a(I1461
F0.149262
tp2652
a(I2115
F0.149212
tp2653
a(I62
F0.149021
tp2654
a(I1783
F0.148936
tp2655
a(I65
F0.14826
tp2656
a(I78
F0.147583
tp2657
a(I161
F0.147454
tp2658
a(I1744
F0.147451
tp2659
a(I1982
F0.147403
tp2660
a(I1286
F0.147334
tp2661
a(I144
F0.147185
tp2662
a(I54
F0.146509
tp2663
a(I48
F0.146373
tp2664
a(I540
F0.143089
tp2665
a(I1102
F0.142648
tp2666
a(I38
F0.142019
tp2667
a(I2100
F0.14132
tp2668
a(I56
F0.141181
tp2669
a(I1823
F0.139802
tp2670
a(I1705
F0.138938
tp2671
a(I1285
F0.138146
tp2672
a(I2013
F0.137542
tp2673
a(I167
F0.136625
tp2674
a(I59
F0.136345
tp2675
a(I2287
F0.136103
tp2676
a(I390
F0.135811
tp2677
a(I2284
F0.135658
tp2678
a(I64
F0.134848
tp2679
a(I2238
F0.134596
tp2680
a(I1968
F0.134333
tp2681
a(I2220
F0.134215
tp2682
a(I674
F0.134148
tp2683
a(I2200
F0.134107
tp2684
a(I97
F0.130683
tp2685
a(I123
F0.130335
tp2686
a(I1468
F0.129296
tp2687
a(I2113
F0.128989
tp2688
a(I1588
F0.128721
tp2689
a(I1871
F0.128625
tp2690
a(I2299
F0.127367
tp2691
a(I1288
F0.126343
tp2692
a(I2223
F0.126116
tp2693
a(I2301
F0.126075
tp2694
a(I2320
F0.125906
tp2695
a(I2086
F0.125152
tp2696
a(I1627
F0.123372
tp2697
a(I530
F0.123363
tp2698
a(I386
F0.123134
tp2699
a(I2322
F0.122245
tp2700
a(I2083
F0.122141
tp2701
a(I2378
F0.122089
tp2702
a(I340
F0.12194
tp2703
a(I722
F0.12183
tp2704
a(I1996
F0.121763
tp2705
a(I2267
F0.120655
tp2706
a(I1872
F0.120649
tp2707
a(I129
F0.119592
tp2708
a(I276
F0.118448
tp2709
a(I1670
F0.117874
tp2710
a(I1513
F0.117478
tp2711
a(I103
F0.117086
tp2712
a(I2180
F0.116988
tp2713
a(I380
F0.116621
tp2714
a(I2070
F0.116226
tp2715
a(I108
F0.115363
tp2716
a(I254
F0.114728
tp2717
a(I109
F0.11467
tp2718
a(I1298
F0.114533
tp2719
a(I218
F0.11429
tp2720
a(I137
F0.112756
tp2721
a(I1040
F0.11263
tp2722
a(I2420
F0.111804
tp2723
a(I1828
F0.111662
tp2724
a(I2371
F0.11129
tp2725
a(I1832
F0.111032
tp2726
a(I106
F0.110957
tp2727
a(I1770
F0.110361
tp2728
a(I1610
F0.109962
tp2729
a(I1788
F0.109176
tp2730
a(I1587
F0.108956
tp2731
a(I1509
F0.108302
tp2732
a(I823
F0.108187
tp2733
a(I1307
F0.10796
tp2734
a(I1911
F0.107735
tp2735
a(I2087
F0.107578
tp2736
a(I1988
F0.107049
tp2737
a(I252
F0.106307
tp2738
a(I1417
F0.106278
tp2739
a(I2255
F0.10561
tp2740
a(I162
F0.105605
tp2741
a(I1338
F0.105291
tp2742
a(I1879
F0.104904
tp2743
a(I557
F0.104845
tp2744
a(I416
F0.104438
tp2745
a(I2276
F0.104244
tp2746
a(I2018
F0.103727
tp2747
a(I1768
F0.103177
tp2748
a(I2139
F0.103043
tp2749
a(I706
F0.102484
tp2750
a(I487
F0.1023
tp2751
a(I963
F0.102038
tp2752
a(I2045
F0.101561
tp2753
a(I2209
F0.101307
tp2754
a(I210
F0.101275
tp2755
a(I183
F0.101237
tp2756
a(I2210
F0.101043
tp2757
a(I1359
F0.100752
tp2758
a(I285
F0.10018
tp2759
a(I2280
F0.100174
tp2760
a(I1657
F0.100049
tp2761
a(I1134
F0.099566
tp2762
a(I1358
F0.099169
tp2763
a(I1613
F0.099141
tp2764
a(I2443
F0.099091
tp2765
a(I2422
F0.098964
tp2766
a(I926
F0.0988
tp2767
a(I2342
F0.098669
tp2768
a(I2305
F0.098052
tp2769
a(I1854
F0.097448
tp2770
a(I2409
F0.096732
tp2771
a(I484
F0.096598
tp2772
a(I2438
F0.09551
tp2773
a(I2467
F0.095504
tp2774
a(I2514
F0.09518
tp2775
a(I2503
F0.095116
tp2776
a(I1942
F0.094945
tp2777
a(I2551
F0.094932
tp2778
a(I1399
F0.094781
tp2779
a(I2413
F0.094343
tp2780
a(I2261
F0.094106
tp2781
a(I1204
F0.094067
tp2782
a(I1912
F0.093724
tp2783
a(I871
F0.093478
tp2784
a(I2493
F0.09344
tp2785
a(I2565
F0.093302
tp2786
a(I1624
F0.093233
tp2787
a(I2612
F0.093098
tp2788
a(I318
F0.092974
tp2789
a(I2199
F0.092914
tp2790
a(I2130
F0.092821
tp2791
a(I726
F0.092557
tp2792
a(I2074
F0.092514
tp2793
a(I1835
F0.092187
tp2794
a(I2592
F0.09165
tp2795
a(I1036
F0.091138
tp2796
a(I2501
F0.091083
tp2797
a(I1665
F0.091076
tp2798
a(I1713
F0.090734
tp2799
a(I1614
F0.090533
tp2800
a(I2599
F0.089581
tp2801
a(I2417
F0.089486
tp2802
a(I1727
F0.089347
tp2803
a(I2637
F0.08921
tp2804
a(I287
F0.088646
tp2805
a(I828
F0.088471
tp2806
a(I1626
F0.088254
tp2807
a(I2684
F0.088204
tp2808
a(I2289
F0.088182
tp2809
a(I2672
F0.088061
tp2810
a(I1579
F0.088046
tp2811
a(I2525
F0.088033
tp2812
a(I681
F0.087793
tp2813
a(I2796
F0.087635
tp2814
a(I1454
F0.087505
tp2815
a(I2554
F0.086514
tp2816
a(I1043
F0.086466
tp2817
a(I2570
F0.086462
tp2818
a(I2384
F0.086272
tp2819
a(I1508
F0.086254
tp2820
a(I289
F0.086039
tp2821
a(I866
F0.086036
tp2822
a(I1367
F0.085982
tp2823
a(I2845
F0.08597
tp2824
a(I783
F0.085551
tp2825
aa(lp2826
a(lp2827
(I1455
F0.212186
tp2828
aa(lp2829
(I28
F0.226071
tp2830
a(I10
F0.226069
tp2831
a(I90
F0.225935
tp2832
a(I0
F0.224766
tp2833
a(I63
F0.22459
tp2834
a(I9
F0.223456
tp2835
a(I2
F0.223437
tp2836
a(I71
F0.223245
tp2837
a(I81
F0.222587
tp2838
a(I107
F0.221395
tp2839
a(I173
F0.218716
tp2840
a(I51
F0.217982
tp2841
a(I140
F0.217025
tp2842
a(I25
F0.216663
tp2843
a(I132
F0.215947
tp2844
a(I1
F0.215543
tp2845
a(I118
F0.212744
tp2846
aa(lp2847
a(lp2848
a(lp2849
(I80
F0.216991
tp2850
a(I496
F0.216817
tp2851
a(I100
F0.216601
tp2852
a(I1740
F0.216299
tp2853
a(I764
F0.216258
tp2854
a(I1089
F0.216137
tp2855
a(I1443
F0.216027
tp2856
a(I1821
F0.215814
tp2857
a(I85
F0.21575
tp2858
a(I1577
F0.215684
tp2859
a(I599
F0.215575
tp2860
a(I863
F0.215529
tp2861
a(I538
F0.215444
tp2862
a(I1773
F0.215078
tp2863
a(I654
F0.21472
tp2864
a(I1859
F0.214704
tp2865
a(I1031
F0.214687
tp2866
a(I267
F0.214421
tp2867
a(I1538
F0.214096
tp2868
a(I1860
F0.213851
tp2869
a(I1391
F0.213646
tp2870
a(I2037
F0.21357
tp2871
a(I148
F0.213529
tp2872
a(I398
F0.213281
tp2873
a(I2169
F0.213215
tp2874
a(I1133
F0.212859
tp2875
a(I274
F0.212788
tp2876
a(I940
F0.212652
tp2877
a(I1476
F0.212476
tp2878
a(I1219
F0.21244
tp2879
aa(lp2880
(I1195
F0.223216
tp2881
a(I793
F0.223156
tp2882
a(I1042
F0.223141
tp2883
a(I933
F0.223043
tp2884
a(I1628
F0.222974
tp2885
a(I1654
F0.222838
tp2886
a(I603
F0.222759
tp2887
a(I751
F0.222689
tp2888
a(I1077
F0.22213
tp2889
a(I947
F0.221996
tp2890
a(I1738
F0.221958
tp2891
a(I426
F0.221782
tp2892
a(I732
F0.221692
tp2893
a(I153
F0.221281
tp2894
a(I227
F0.221103
tp2895
a(I96
F0.22102
tp2896
a(I661
F0.221004
tp2897
a(I558
F0.220592
tp2898
a(I1361
F0.220532
tp2899
a(I169
F0.220115
tp2900
a(I84
F0.219378
tp2901
a(I738
F0.218956
tp2902
a(I499
F0.218758
tp2903
a(I1480
F0.218731
tp2904
a(I1349
F0.218538
tp2905
a(I69
F0.218452
tp2906
a(I463
F0.218229
tp2907
a(I1162
F0.21767
tp2908
a(I1241
F0.217572
tp2909
a(I475
F0.217446
tp2910
a(I1554
F0.217178
tp2911
aa(lp2912
(I353
F0.228115
tp2913
a(I543
F0.227953
tp2914
a(I518
F0.227905
tp2915
a(I419
F0.227361
tp2916
a(I1305
F0.227345
tp2917
a(I184
F0.226454
tp2918
a(I158
F0.226397
tp2919
a(I199
F0.226165
tp2920
a(I1427
F0.22602
tp2921
a(I99
F0.225795
tp2922
a(I786
F0.225716
tp2923
a(I155
F0.225592
tp2924
a(I1436
F0.225477
tp2925
a(I767
F0.225403
tp2926
a(I1294
F0.224695
tp2927
a(I135
F0.224489
tp2928
a(I83
F0.224297
tp2929
a(I620
F0.224034
tp2930
a(I559
F0.223611
tp2931
aa(lp2932
a(lp2933
(I1446
F0.230446
tp2934
a(I1250
F0.230297
tp2935
a(I1535
F0.230055
tp2936
a(I747
F0.230004
tp2937
a(I699
F0.229942
tp2938
a(I113
F0.229397
tp2939
a(I675
F0.229237
tp2940
a(I214
F0.228972
tp2941
a(I978
F0.228836
tp2942
a(I105
F0.228827
tp2943
a(I192
F0.228665
tp2944
a(I1360
F0.228553
tp2945
a(I1170
F0.228281
tp2946
aa(lp2947
a(lp2948
(I124
F0.237584
tp2949
a(I1340
F0.237548
tp2950
a(I368
F0.237462
tp2951
a(I228
F0.237251
tp2952
a(I1355
F0.237019
tp2953
a(I564
F0.236182
tp2954
a(I1185
F0.236061
tp2955
a(I272
F0.235727
tp2956
a(I1125
F0.235667
tp2957
a(I990
F0.235381
tp2958
a(I182
F0.235059
tp2959
a(I1500
F0.234827
tp2960
a(I152
F0.234292
tp2961
a(I304
F0.233493
tp2962
a(I322
F0.233038
tp2963
a(I243
F0.232524
tp2964
a(I260
F0.232448
tp2965
a(I202
F0.232238
tp2966
a(I758
F0.232033
tp2967
a(I1047
F0.231573
tp2968
a(I1243
F0.23148
tp2969
a(I336
F0.231258
tp2970
a(I1527
F0.231254
tp2971
a(I138
F0.231226
tp2972
aa(lp2973
(I326
F0.24411
tp2974
a(I216
F0.242872
tp2975
a(I146
F0.238539
tp2976
aa(lp2977
(I294
F0.240565
tp2978
a(I327
F0.239962
tp2979
a(I445
F0.239304
tp2980
a(I579
F0.23926
tp2981
a(I165
F0.239145
tp2982
a(I1424
F0.239076
tp2983
a(I1281
F0.238973
tp2984
a(I262
F0.238866
tp2985
a(I194
F0.238488
tp2986
a(I1470
F0.238368
tp2987
a(I1199
F0.238345
tp2988
a(I1439
F0.238006
tp2989
aa(lp2990
(I403
F0.24712
tp2991
a(I794
F0.246962
tp2992
a(I639
F0.246796
tp2993
a(I878
F0.246737
tp2994
a(I1073
F0.246633
tp2995
a(I444
F0.246619
tp2996
a(I503
F0.246005
tp2997
a(I491
F0.245872
tp2998
a(I1237
F0.245669
tp2999
a(I320
F0.245535
tp3000
a(I1060
F0.244798
tp3001
a(I442
F0.244762
tp3002
a(I1251
F0.24461
tp3003
a(I915
F0.244521
tp3004
a(I1046
F0.244142
tp3005
a(I1118
F0.243641
tp3006
a(I333
F0.243145
tp3007
a(I1459
F0.242451
tp3008
a(I756
F0.242063
tp3009
a(I1389
F0.241902
tp3010
a(I331
F0.241529
tp3011
a(I975
F0.24129
tp3012
a(I950
F0.241102
tp3013
aa(lp3014
(I908
F0.24781
tp3015
a(I1129
F0.247791
tp3016
aa(lp3017
(I649
F0.248046
tp3018
aa(lp3019
(I387
F0.249635
tp3020
aa(lp3021
(I728
F0.251087
tp3022
aa(lp3023
a(lp3024
a(lp3025
(I670
F0.255006
tp3026
a(I880
F0.253158
tp3027
aa(lp3028
a(lp3029
(I1011
F0.249166
tp3030
aa(lp3031
(I1261
F0.25436
tp3032
a(I1197
F0.254012
tp3033
a(I1357
F0.249874
tp3034
a(I1194
F0.248956
tp3035
aa(lp3036
(I1553
F0.240917
tp3037
aa(lp3038
a(lp3039
a(lp3040
(I697
F0.231586
tp3041
a(I762
F0.231372
tp3042
aa(lp3043
a(lp3044
(I1010
F0.236608
tp3045
a(I959
F0.23591
tp3046
a(I1166
F0.234978
tp3047
a(I889
F0.234632
tp3048
a(I1086
F0.234552
tp3049
a(I901
F0.234378
tp3050
a(I1205
F0.233978
tp3051
a(I892
F0.232943
tp3052
a(I1131
F0.23281
tp3053
a(I742
F0.232677
tp3054
aa(lp3055
(I803
F0.238406
tp3056
aa(lp3057
(I780
F0.250193
tp3058
a(I656
F0.247628
tp3059
a(I660
F0.241183
tp3060
aa(lp3061
a(lp3062
(I1309
F0.258774
tp3063
a(I1300
F0.257443
tp3064
a(I1101
F0.256329
tp3065
a(I1200
F0.255365
tp3066
a(I939
F0.253632
tp3067
a(I1021
F0.253229
tp3068
a(I1160
F0.24957
tp3069
a(I1216
F0.248759
tp3070
a(I1094
F0.248633
tp3071
a(I1000
F0.247913
tp3072
a(I1295
F0.246382
tp3073
a(I960
F0.244446
tp3074
a(I1272
F0.243994
tp3075
a(I881
F0.241554
tp3076
a(I874
F0.238926
tp3077
a(I1025
F0.237807
tp3078
a(I1253
F0.237005
tp3079
aa(lp3080
(I1378
F0.231566
tp3081
aa(lp3082
a(lp3083
a(lp3084
a(lp3085
(I2118
F0.23037
tp3086
a(I1771
F0.228527
tp3087
a(I1683
F0.228228
tp3088
a(I1669
F0.2277
tp3089
a(I1862
F0.226959
tp3090
a(I2091
F0.226594
tp3091
a(I2067
F0.226103
tp3092
a(I1555
F0.225829
tp3093
a(I1967
F0.225755
tp3094
a(I1620
F0.224517
tp3095
a(I1678
F0.224361
tp3096
a(I1776
F0.222462
tp3097
a(I1791
F0.221646
tp3098
a(I1655
F0.220795
tp3099
a(I1580
F0.220109
tp3100
a(I1964
F0.219366
tp3101
a(I1895
F0.218978
tp3102
a(I1978
F0.218164
tp3103
a(I1567
F0.217747
tp3104
aa(lp3105
(I1648
F0.234195
tp3106
a(I1643
F0.232285
tp3107
aa(lp3108
a(lp3109
a(lp3110
(I1822
F0.240184
tp3111
a(I1874
F0.239957
tp3112
a(I2005
F0.238424
tp3113
a(I2000
F0.236563
tp3114
aa(lp3115
(I1789
F0.238257
tp3116
aa(lp3117
a(lp3118
(I2123
F0.314581
tp3119
a(I2231
F0.313567
tp3120
a(I2272
F0.313466
tp3121
a(I2270
F0.313411
tp3122
a(I2111
F0.311617
tp3123
a(I2356
F0.309749
tp3124
a(I2211
F0.308911
tp3125
a(I2027
F0.308716
tp3126
a(I2317
F0.308483
tp3127
a(I2021
F0.308163
tp3128
a(I2071
F0.30464
tp3129
a(I2321
F0.304299
tp3130
a(I2389
F0.304139
tp3131
a(I2271
F0.304083
tp3132
a(I2142
F0.303739
tp3133
a(I2447
F0.303108
tp3134
a(I2453
F0.302018
tp3135
a(I2024
F0.301832
tp3136
a(I1989
F0.300411
tp3137
a(I2383
F0.300188
tp3138
a(I2153
F0.300126
tp3139
a(I1952
F0.299765
tp3140
a(I2006
F0.298891
tp3141
a(I2249
F0.298155
tp3142
a(I2534
F0.296585
tp3143
a(I2495
F0.296485
tp3144
a(I2049
F0.295987
tp3145
a(I2236
F0.295711
tp3146
a(I1924
F0.295643
tp3147
a(I2454
F0.294423
tp3148
a(I1923
F0.293896
tp3149
a(I2403
F0.293071
tp3150
a(I2059
F0.290585
tp3151
a(I2507
F0.290496
tp3152
a(I2012
F0.289556
tp3153
a(I2385
F0.289082
tp3154
a(I2335
F0.288811
tp3155
a(I2166
F0.287875
tp3156
a(I1913
F0.287033
tp3157
a(I2561
F0.286807
tp3158
a(I2334
F0.286393
tp3159
a(I1938
F0.285977
tp3160
a(I1914
F0.285004
tp3161
a(I2001
F0.284929
tp3162
a(I2164
F0.284834
tp3163
a(I2593
F0.283154
tp3164
a(I2435
F0.281915
tp3165
a(I2460
F0.281729
tp3166
a(I2519
F0.28149
tp3167
a(I2513
F0.278983
tp3168
a(I2040
F0.277621
tp3169
a(I1984
F0.27643
tp3170
a(I1919
F0.275467
tp3171
a(I2055
F0.275057
tp3172
a(I1999
F0.273646
tp3173
a(I2017
F0.273555
tp3174
a(I2597
F0.273221
tp3175
a(I2427
F0.271596
tp3176
a(I2022
F0.268655
tp3177
a(I1940
F0.268551
tp3178
a(I2544
F0.268336
tp3179
a(I2186
F0.26573
tp3180
a(I2274
F0.265644
tp3181
a(I2283
F0.265611
tp3182
a(I2502
F0.263213
tp3183
a(I1979
F0.262673
tp3184
a(I2233
F0.261719
tp3185
a(I2093
F0.261146
tp3186
a(I2595
F0.260817
tp3187
a(I2623
F0.26016
tp3188
a(I2609
F0.259338
tp3189
a(I2361
F0.253317
tp3190
a(I2616
F0.253304
tp3191
a(I2099
F0.253198
tp3192
a(I2618
F0.253107
tp3193
a(I2144
F0.25171
tp3194
a(I2506
F0.25096
tp3195
a(I2656
F0.249996
tp3196
a(I2543
F0.248556
tp3197
a(I2237
F0.247814
tp3198
a(I1991
F0.247701
tp3199
a(I2128
F0.245501
tp3200
a(I2065
F0.245465
tp3201
a(I2213
F0.245084
tp3202
a(I2515
F0.244583
tp3203
a(I2076
F0.243862
tp3204
a(I2248
F0.242521
tp3205
a(I2388
F0.242194
tp3206
a(I2066
F0.24003
tp3207
a(I2678
F0.239619
tp3208
a(I2078
F0.239423
tp3209
a(I2112
F0.239387
tp3210
a(I2324
F0.238495
tp3211
a(I2636
F0.238048
tp3212
a(I2654
F0.23742
tp3213
a(I2412
F0.234934
tp3214
a(I2509
F0.233358
tp3215
a(I2455
F0.232937
tp3216
a(I2476
F0.232803
tp3217
a(I2120
F0.230626
tp3218
a(I2683
F0.228248
tp3219
a(I2352
F0.227321
tp3220
a(I2195
F0.226222
tp3221
a(I2632
F0.221513
tp3222
a(I2633
F0.221004
tp3223
a(I2316
F0.220508
tp3224
a(I2411
F0.219811
tp3225
a(I2245
F0.216541
tp3226
a(I2576
F0.215881
tp3227
a(I2296
F0.214859
tp3228
a(I2126
F0.212109
tp3229
a(I2175
F0.211417
tp3230
a(I2540
F0.21133
tp3231
a(I2743
F0.209249
tp3232
a(I2729
F0.20893
tp3233
a(I2451
F0.20802
tp3234
a(I2215
F0.20783
tp3235
a(I2732
F0.207427
tp3236
a(I2685
F0.207243
tp3237
a(I2589
F0.206483
tp3238
a(I2617
F0.205606
tp3239
a(I2170
F0.205343
tp3240
a(I2706
F0.205044
tp3241
a(I2692
F0.20224
tp3242
a(I2498
F0.200884
tp3243
a(I2566
F0.200314
tp3244
a(I2640
F0.200073
tp3245
a(I2328
F0.199043
tp3246
a(I2458
F0.196326
tp3247
a(I2275
F0.195174
tp3248
a(I2302
F0.18953
tp3249
a(I2355
F0.189305
tp3250
a(I2281
F0.189156
tp3251
a(I2252
F0.186617
tp3252
a(I2528
F0.184575
tp3253
a(I2791
F0.183346
tp3254
a(I2802
F0.181978
tp3255
a(I2754
F0.181849
tp3256
a(I2720
F0.181606
tp3257
a(I2624
F0.181156
tp3258
a(I2391
F0.180377
tp3259
a(I2809
F0.179602
tp3260
a(I2747
F0.179015
tp3261
a(I2582
F0.172102
tp3262
a(I2358
F0.171885
tp3263
a(I2653
F0.170827
tp3264
a(I2718
F0.167863
tp3265
a(I2481
F0.167335
tp3266
a(I2644
F0.166278
tp3267
a(I2821
F0.166148
tp3268
a(I2814
F0.163413
tp3269
a(I2323
F0.162993
tp3270
a(I2353
F0.160185
tp3271
a(I2518
F0.158495
tp3272
a(I2858
F0.156254
tp3273
a(I2372
F0.151823
tp3274
a(I2359
F0.149489
tp3275
a(I2757
F0.148504
tp3276
a(I2717
F0.147746
tp3277
a(I2468
F0.145182
tp3278
a(I2930
F0.141764
tp3279
a(I2948
F0.139982
tp3280
a(I2407
F0.139373
tp3281
a(I2434
F0.138521
tp3282
a(I2462
F0.138164
tp3283
a(I2952
F0.135281
tp3284
a(I2712
F0.134132
tp3285
a(I2828
F0.133738
tp3286
a(I2884
F0.133492
tp3287
a(I2961
F0.132841
tp3288
a(I2860
F0.132586
tp3289
a(I2924
F0.132227
tp3290
a(I2619
F0.131479
tp3291
a(I2693
F0.13107
tp3292
a(I2936
F0.130963
tp3293
a(I2744
F0.13079
tp3294
a(I2707
F0.129529
tp3295
a(I2981
F0.127501
tp3296
a(I2635
F0.125423
tp3297
a(I2842
F0.125252
tp3298
a(I2573
F0.123173
tp3299
a(I2410
F0.122125
tp3300
a(I3021
F0.121302
tp3301
a(I3034
F0.12074
tp3302
a(I2894
F0.120694
tp3303
a(I2812
F0.119975
tp3304
a(I2522
F0.119006
tp3305
a(I3054
F0.118987
tp3306
a(I2563
F0.118317
tp3307
a(I3010
F0.11818
tp3308
a(I2955
F0.117861
tp3309
a(I2585
F0.116508
tp3310
a(I2686
F0.116235
tp3311
a(I2748
F0.114874
tp3312
a(I2504
F0.114829
tp3313
a(I2989
F0.113979
tp3314
a(I2429
F0.113581
tp3315
a(I2469
F0.112708
tp3316
a(I2925
F0.112479
tp3317
a(I3069
F0.110671
tp3318
a(I2914
F0.108602
tp3319
a(I2980
F0.108466
tp3320
a(I3048
F0.107817
tp3321
a(I2607
F0.107672
tp3322
a(I2665
F0.106597
tp3323
a(I3032
F0.106537
tp3324
a(I3071
F0.106403
tp3325
a(I2887
F0.106004
tp3326
a(I3139
F0.105332
tp3327
a(I2999
F0.104999
tp3328
a(I2818
F0.10374
tp3329
a(I2904
F0.103697
tp3330
a(I3138
F0.103644
tp3331
a(I2520
F0.103497
tp3332
a(I2765
F0.103471
tp3333
a(I3107
F0.103298
tp3334
a(I3165
F0.101514
tp3335
a(I2793
F0.101267
tp3336
a(I2704
F0.101028
tp3337
a(I2648
F0.100201
tp3338
a(I2530
F0.098417
tp3339
a(I2432
F0.098379
tp3340
a(I3038
F0.098242
tp3341
a(I2663
F0.098119
tp3342
a(I3115
F0.096741
tp3343
a(I2908
F0.096703
tp3344
a(I2553
F0.096248
tp3345
a(I3090
F0.096187
tp3346
a(I3232
F0.096115
tp3347
a(I2472
F0.096112
tp3348
a(I3033
F0.096075
tp3349
a(I2805
F0.095393
tp3350
a(I2965
F0.095087
tp3351
a(I2883
F0.095076
tp3352
a(I2494
F0.094889
tp3353
a(I2746
F0.094858
tp3354
a(I3175
F0.093755
tp3355
a(I3173
F0.093687
tp3356
a(I2970
F0.093287
tp3357
a(I2555
F0.092605
tp3358
a(I2477
F0.092311
tp3359
a(I3192
F0.092195
tp3360
a(I2486
F0.092032
tp3361
a(I2505
F0.091965
tp3362
a(I2771
F0.091463
tp3363
a(I2603
F0.091457
tp3364
a(I2620
F0.090985
tp3365
a(I2580
F0.09098
tp3366
a(I3016
F0.090925
tp3367
a(I3222
F0.090567
tp3368
a(I2532
F0.090509
tp3369
a(I2485
F0.090222
tp3370
a(I2615
F0.089945
tp3371
a(I2749
F0.089042
tp3372
a(I3134
F0.089005
tp3373
a(I3129
F0.088842
tp3374
a(I2491
F0.088783
tp3375
a(I2611
F0.088574
tp3376
a(I2556
F0.088381
tp3377
a(I2571
F0.088285
tp3378
a(I2682
F0.088134
tp3379
a(I2944
F0.088077
tp3380
a(I2689
F0.08785
tp3381
a(I2657
F0.087415
tp3382
a(I2625
F0.087196
tp3383
a(I2602
F0.086825
tp3384
a(I2457
F0.086692
tp3385
a(I2855
F0.086612
tp3386
a(I2588
F0.086013
tp3387
a(I2819
F0.085949
tp3388
a(I3177
F0.08592
tp3389
a(I2639
F0.085863
tp3390
a(I3252
F0.085575
tp3391
a(I2711
F0.085351
tp3392
a(I3249
F0.085288
tp3393
a(I2545
F0.085246
tp3394
a(I2645
F0.085129
tp3395
aa(lp3396
a(lp3397
a(lp3398
a(lp3399
a.