(lp0
(I0
I1
tp1
a(I1
I2
tp2
a(I2
I3
tp3
a(I2
I4
tp4
a(I4
I5
tp5
a(I4
I6
tp6
a(I6
I7
tp7
a(I6
I8
tp8
a(I8
I9
tp9
a(I9
I10
tp10
a(I10
I11
tp11
a(I11
I12
tp12
a(I11
I13
tp13
a(I13
I14
tp14
a(I14
I15
tp15
a(I15
I16
tp16
a(I15
I17
tp17
a(I17
I18
tp18
a(I18
I19
tp19
a(I19
I20
tp20
a(I19
I21
tp21
a(I18
I22
tp22
a(I22
I23
tp23
a(I22
I24
tp24
a(I17
I25
tp25
a(I14
I26
tp26
a(I26
I27
tp27
a(I27
I28
tp28
a(I27
I29
tp29
a(I26
I30
tp30
a(I30
I31
tp31
a(I31
I32
tp32
a(I31
I33
tp33
a(I30
I34
tp34
a(I13
I35
tp35
a(I10
I36
tp36
a(I9
I37
tp37
a(I8
I38
tp38
a(I1
I39
tp39
a(I39
I40
tp40
a(I39
I41
tp41
a.