(lp0
(I0
I1
tp1
a(I1
I2
tp2
a(I2
I3
tp3
a(I2
I4
tp4
a(I4
I5
tp5
a(I5
I6
tp6
a(I5
I7
tp7
a(I7
I8
tp8
a(I7
I9
tp9
a(I9
I10
tp10
a(I10
I11
tp11
a(I10
I12
tp12
a(I9
I13
tp13
a(I4
I14
tp14
a(I14
I15
tp15
a(I15
I16
tp16
a(I15
I17
tp17
a(I17
I18
tp18
a(I18
I19
tp19
a(I19
I20
tp20
a(I20
I21
tp21
a(I21
I22
tp22
a(I21
I23
tp23
a(I23
I24
tp24
a(I24
I25
tp25
a(I25
I26
tp26
a(I25
I27
tp27
a(I24
I28
tp28
a(I23
I29
tp29
a(I20
I30
tp30
a(I19
I31
tp31
a(I18
I32
tp32
a(I32
I33
tp33
a(I33
I34
tp34
a(I33
I35
tp35
a(I35
I36
tp36
a(I36
I37
tp37
a(I36
I38
tp38
a(I35
I39
tp39
a(I39
I40
tp40
a(I39
I41
tp41
a(I41
I42
tp42
a(I42
I43
tp43
a(I42
I44
tp44
a(I41
I45
tp45
a(I32
I46
tp46
a(I17
I47
tp47
a(I47
I48
tp48
a(I48
I49
tp49
a(I48
I50
tp50
a(I50
I51
tp51
a(I50
I52
tp52
a(I52
I53
tp53
a(I53
I54
tp54
a(I53
I55
tp55
a(I55
I56
tp56
a(I55
I57
tp57
a(I57
I58
tp58
a(I57
I59
tp59
a(I59
I60
tp60
a(I60
I61
tp61
a(I60
I62
tp62
a(I62
I63
tp63
a(I63
I64
tp64
a(I63
I65
tp65
a(I65
I66
tp66
a(I66
I67
tp67
a(I66
I68
tp68
a(I68
I69
tp69
a(I69
I70
tp70
a(I69
I71
tp71
a(I71
I72
tp72
a(I71
I73
tp73
a(I73
I74
tp74
a(I74
I75
tp75
a(I75
I76
tp76
a(I75
I77
tp77
a(I77
I78
tp78
a(I78
I79
tp79
a(I79
I80
tp80
a(I80
I81
tp81
a(I81
I82
tp82
a(I81
I83
tp83
a(I80
I84
tp84
a(I84
I85
tp85
a(I85
I86
tp86
a(I86
I87
tp87
a(I86
I88
tp88
a(I86
I89
tp89
a(I89
I90
tp90
a(I89
I91
tp91
a(I85
I92
tp92
a(I84
I93
tp93
a(I79
I94
tp94
a(I94
I95
tp95
a(I94
I96
tp96
a(I78
I97
tp97
a(I77
I98
tp98
a(I74
I99
tp99
a(I73
I100
tp100
a(I68
I101
tp101
a(I65
I102
tp102
a(I62
I103
tp103
a(I59
I104
tp104
a(I52
I105
tp105
a(I47
I106
tp106
a(I106
I107
tp107
a(I107
I108
tp108
a(I107
I109
tp109
a(I109
I110
tp110
a(I109
I111
tp111
a(I111
I112
tp112
a(I112
I113
tp113
a(I113
I114
tp114
a(I113
I115
tp115
a(I115
I116
tp116
a(I116
I117
tp117
a(I116
I118
tp118
a(I118
I119
tp119
a(I119
I120
tp120
a(I119
I121
tp121
a(I121
I122
tp122
a(I122
I123
tp123
a(I123
I124
tp124
a(I124
I125
tp125
a(I125
I126
tp126
a(I125
I127
tp127
a(I124
I128
tp128
a(I123
I129
tp129
a(I122
I130
tp130
a(I130
I131
tp131
a(I130
I132
tp132
a(I121
I133
tp133
a(I133
I134
tp134
a(I133
I135
tp135
a(I135
I136
tp136
a(I136
I137
tp137
a(I136
I138
tp138
a(I135
I139
tp139
a(I139
I140
tp140
a(I139
I141
tp141
a(I118
I142
tp142
a(I115
I143
tp143
a(I143
I144
tp144
a(I143
I145
tp145
a(I112
I146
tp146
a(I146
I147
tp147
a(I147
I148
tp148
a(I147
I149
tp149
a(I146
I150
tp150
a(I150
I151
tp151
a(I150
I152
tp152
a(I111
I153
tp153
a(I106
I154
tp154
a(I154
I155
tp155
a(I155
I156
tp156
a(I156
I157
tp157
a(I156
I158
tp158
a(I155
I159
tp159
a(I154
I160
tp160
a(I160
I161
tp161
a(I160
I162
tp162
a(I14
I163
tp163
a(I163
I164
tp164
a(I164
I165
tp165
a(I165
I166
tp166
a(I165
I167
tp167
a(I167
I168
tp168
a(I167
I169
tp169
a(I164
I170
tp170
a(I170
I171
tp171
a(I171
I172
tp172
a(I171
I173
tp173
a(I173
I174
tp174
a(I174
I175
tp175
a(I174
I176
tp176
a(I173
I177
tp177
a(I170
I178
tp178
a(I178
I179
tp179
a(I179
I180
tp180
a(I179
I181
tp181
a(I178
I182
tp182
a(I163
I183
tp183
a(I183
I184
tp184
a(I184
I185
tp185
a(I184
I186
tp186
a(I186
I187
tp187
a(I187
I188
tp188
a(I187
I189
tp189
a(I189
I190
tp190
a(I190
I191
tp191
a(I191
I192
tp192
a(I191
I193
tp193
a(I190
I194
tp194
a(I194
I195
tp195
a(I194
I196
tp196
a(I189
I197
tp197
a(I186
I198
tp198
a(I198
I199
tp199
a(I199
I200
tp200
a(I199
I201
tp201
a(I201
I202
tp202
a(I202
I203
tp203
a(I203
I204
tp204
a(I203
I205
tp205
a(I202
I206
tp206
a(I201
I207
tp207
a(I207
I208
tp208
a(I207
I209
tp209
a(I209
I210
tp210
a(I209
I211
tp211
a(I211
I212
tp212
a(I211
I213
tp213
a(I198
I214
tp214
a(I183
I215
tp215
a(I1
I216
tp216
a.